
Final.elf:     file format elf32-avr

Sections:
Idx Name          Size      VMA       LMA       File off  Algn
  0 .data         0000000e  00800200  00000de8  00000e7c  2**0
                  CONTENTS, ALLOC, LOAD, DATA
  1 .text         00000de8  00000000  00000000  00000094  2**1
                  CONTENTS, ALLOC, LOAD, READONLY, CODE
  2 .bss          00000001  0080020e  0080020e  00000e8a  2**0
                  ALLOC
  3 .comment      0000005c  00000000  00000000  00000e8a  2**0
                  CONTENTS, READONLY
  4 .note.gnu.avr.deviceinfo 00000040  00000000  00000000  00000ee8  2**2
                  CONTENTS, READONLY
  5 .debug_aranges 00000090  00000000  00000000  00000f28  2**3
                  CONTENTS, READONLY, DEBUGGING
  6 .debug_info   0000123e  00000000  00000000  00000fb8  2**0
                  CONTENTS, READONLY, DEBUGGING
  7 .debug_abbrev 00000d83  00000000  00000000  000021f6  2**0
                  CONTENTS, READONLY, DEBUGGING
  8 .debug_line   0000073a  00000000  00000000  00002f79  2**0
                  CONTENTS, READONLY, DEBUGGING
  9 .debug_frame  00000158  00000000  00000000  000036b4  2**2
                  CONTENTS, READONLY, DEBUGGING
 10 .debug_str    0000068c  00000000  00000000  0000380c  2**0
                  CONTENTS, READONLY, DEBUGGING
 11 .debug_loc    00000652  00000000  00000000  00003e98  2**0
                  CONTENTS, READONLY, DEBUGGING
 12 .debug_ranges 00000078  00000000  00000000  000044ea  2**0
                  CONTENTS, READONLY, DEBUGGING

Disassembly of section .text:

00000000 <__vectors>:
   0:	71 c0       	rjmp	.+226    	; 0xe4 <__ctors_end>
   2:	00 00       	nop
   4:	8e c0       	rjmp	.+284    	; 0x122 <__bad_interrupt>
   6:	00 00       	nop
   8:	8c c0       	rjmp	.+280    	; 0x122 <__bad_interrupt>
   a:	00 00       	nop
   c:	8a c0       	rjmp	.+276    	; 0x122 <__bad_interrupt>
   e:	00 00       	nop
  10:	88 c0       	rjmp	.+272    	; 0x122 <__bad_interrupt>
  12:	00 00       	nop
  14:	86 c0       	rjmp	.+268    	; 0x122 <__bad_interrupt>
  16:	00 00       	nop
  18:	84 c0       	rjmp	.+264    	; 0x122 <__bad_interrupt>
  1a:	00 00       	nop
  1c:	82 c0       	rjmp	.+260    	; 0x122 <__bad_interrupt>
  1e:	00 00       	nop
  20:	80 c0       	rjmp	.+256    	; 0x122 <__bad_interrupt>
  22:	00 00       	nop
  24:	7e c0       	rjmp	.+252    	; 0x122 <__bad_interrupt>
  26:	00 00       	nop
  28:	7c c0       	rjmp	.+248    	; 0x122 <__bad_interrupt>
  2a:	00 00       	nop
  2c:	7a c0       	rjmp	.+244    	; 0x122 <__bad_interrupt>
  2e:	00 00       	nop
  30:	78 c0       	rjmp	.+240    	; 0x122 <__bad_interrupt>
  32:	00 00       	nop
  34:	76 c0       	rjmp	.+236    	; 0x122 <__bad_interrupt>
  36:	00 00       	nop
  38:	74 c0       	rjmp	.+232    	; 0x122 <__bad_interrupt>
  3a:	00 00       	nop
  3c:	72 c0       	rjmp	.+228    	; 0x122 <__bad_interrupt>
  3e:	00 00       	nop
  40:	70 c0       	rjmp	.+224    	; 0x122 <__bad_interrupt>
  42:	00 00       	nop
  44:	6e c0       	rjmp	.+220    	; 0x122 <__bad_interrupt>
  46:	00 00       	nop
  48:	6c c0       	rjmp	.+216    	; 0x122 <__bad_interrupt>
  4a:	00 00       	nop
  4c:	6a c0       	rjmp	.+212    	; 0x122 <__bad_interrupt>
  4e:	00 00       	nop
  50:	68 c0       	rjmp	.+208    	; 0x122 <__bad_interrupt>
  52:	00 00       	nop
  54:	66 c0       	rjmp	.+204    	; 0x122 <__bad_interrupt>
  56:	00 00       	nop
  58:	64 c0       	rjmp	.+200    	; 0x122 <__bad_interrupt>
  5a:	00 00       	nop
  5c:	62 c0       	rjmp	.+196    	; 0x122 <__bad_interrupt>
  5e:	00 00       	nop
  60:	60 c0       	rjmp	.+192    	; 0x122 <__bad_interrupt>
  62:	00 00       	nop
  64:	5e c0       	rjmp	.+188    	; 0x122 <__bad_interrupt>
  66:	00 00       	nop
  68:	5c c0       	rjmp	.+184    	; 0x122 <__bad_interrupt>
  6a:	00 00       	nop
  6c:	5a c0       	rjmp	.+180    	; 0x122 <__bad_interrupt>
  6e:	00 00       	nop
  70:	58 c0       	rjmp	.+176    	; 0x122 <__bad_interrupt>
  72:	00 00       	nop
  74:	56 c0       	rjmp	.+172    	; 0x122 <__bad_interrupt>
  76:	00 00       	nop
  78:	54 c0       	rjmp	.+168    	; 0x122 <__bad_interrupt>
  7a:	00 00       	nop
  7c:	52 c0       	rjmp	.+164    	; 0x122 <__bad_interrupt>
  7e:	00 00       	nop
  80:	50 c0       	rjmp	.+160    	; 0x122 <__bad_interrupt>
  82:	00 00       	nop
  84:	4e c0       	rjmp	.+156    	; 0x122 <__bad_interrupt>
  86:	00 00       	nop
  88:	4c c0       	rjmp	.+152    	; 0x122 <__bad_interrupt>
  8a:	00 00       	nop
  8c:	4a c0       	rjmp	.+148    	; 0x122 <__bad_interrupt>
  8e:	00 00       	nop
  90:	48 c0       	rjmp	.+144    	; 0x122 <__bad_interrupt>
  92:	00 00       	nop
  94:	46 c0       	rjmp	.+140    	; 0x122 <__bad_interrupt>
  96:	00 00       	nop
  98:	44 c0       	rjmp	.+136    	; 0x122 <__bad_interrupt>
  9a:	00 00       	nop
  9c:	42 c0       	rjmp	.+132    	; 0x122 <__bad_interrupt>
  9e:	00 00       	nop
  a0:	40 c0       	rjmp	.+128    	; 0x122 <__bad_interrupt>
  a2:	00 00       	nop
  a4:	3e c0       	rjmp	.+124    	; 0x122 <__bad_interrupt>
  a6:	00 00       	nop
  a8:	3c c0       	rjmp	.+120    	; 0x122 <__bad_interrupt>
  aa:	00 00       	nop
  ac:	3a c0       	rjmp	.+116    	; 0x122 <__bad_interrupt>
  ae:	00 00       	nop
  b0:	38 c0       	rjmp	.+112    	; 0x122 <__bad_interrupt>
  b2:	00 00       	nop
  b4:	36 c0       	rjmp	.+108    	; 0x122 <__bad_interrupt>
  b6:	00 00       	nop
  b8:	34 c0       	rjmp	.+104    	; 0x122 <__bad_interrupt>
  ba:	00 00       	nop
  bc:	32 c0       	rjmp	.+100    	; 0x122 <__bad_interrupt>
  be:	00 00       	nop
  c0:	30 c0       	rjmp	.+96     	; 0x122 <__bad_interrupt>
  c2:	00 00       	nop
  c4:	2e c0       	rjmp	.+92     	; 0x122 <__bad_interrupt>
  c6:	00 00       	nop
  c8:	2c c0       	rjmp	.+88     	; 0x122 <__bad_interrupt>
  ca:	00 00       	nop
  cc:	2a c0       	rjmp	.+84     	; 0x122 <__bad_interrupt>
  ce:	00 00       	nop
  d0:	28 c0       	rjmp	.+80     	; 0x122 <__bad_interrupt>
  d2:	00 00       	nop
  d4:	26 c0       	rjmp	.+76     	; 0x122 <__bad_interrupt>
  d6:	00 00       	nop
  d8:	24 c0       	rjmp	.+72     	; 0x122 <__bad_interrupt>
  da:	00 00       	nop
  dc:	22 c0       	rjmp	.+68     	; 0x122 <__bad_interrupt>
  de:	00 00       	nop
  e0:	20 c0       	rjmp	.+64     	; 0x122 <__bad_interrupt>
	...

000000e4 <__ctors_end>:
  e4:	11 24       	eor	r1, r1
  e6:	1f be       	out	0x3f, r1	; 63
  e8:	cf ef       	ldi	r28, 0xFF	; 255
  ea:	d1 e2       	ldi	r29, 0x21	; 33
  ec:	de bf       	out	0x3e, r29	; 62
  ee:	cd bf       	out	0x3d, r28	; 61
  f0:	00 e0       	ldi	r16, 0x00	; 0
  f2:	0c bf       	out	0x3c, r16	; 60

000000f4 <__do_copy_data>:
  f4:	12 e0       	ldi	r17, 0x02	; 2
  f6:	a0 e0       	ldi	r26, 0x00	; 0
  f8:	b2 e0       	ldi	r27, 0x02	; 2
  fa:	e8 ee       	ldi	r30, 0xE8	; 232
  fc:	fd e0       	ldi	r31, 0x0D	; 13
  fe:	00 e0       	ldi	r16, 0x00	; 0
 100:	0b bf       	out	0x3b, r16	; 59
 102:	02 c0       	rjmp	.+4      	; 0x108 <__do_copy_data+0x14>
 104:	07 90       	elpm	r0, Z+
 106:	0d 92       	st	X+, r0
 108:	ae 30       	cpi	r26, 0x0E	; 14
 10a:	b1 07       	cpc	r27, r17
 10c:	d9 f7       	brne	.-10     	; 0x104 <__do_copy_data+0x10>

0000010e <__do_clear_bss>:
 10e:	22 e0       	ldi	r18, 0x02	; 2
 110:	ae e0       	ldi	r26, 0x0E	; 14
 112:	b2 e0       	ldi	r27, 0x02	; 2
 114:	01 c0       	rjmp	.+2      	; 0x118 <.do_clear_bss_start>

00000116 <.do_clear_bss_loop>:
 116:	1d 92       	st	X+, r1

00000118 <.do_clear_bss_start>:
 118:	af 30       	cpi	r26, 0x0F	; 15
 11a:	b2 07       	cpc	r27, r18
 11c:	e1 f7       	brne	.-8      	; 0x116 <.do_clear_bss_loop>
 11e:	53 d1       	rcall	.+678    	; 0x3c6 <main>
 120:	61 c6       	rjmp	.+3266   	; 0xde4 <_exit>

00000122 <__bad_interrupt>:
 122:	6e cf       	rjmp	.-292    	; 0x0 <__vectors>

00000124 <delay_usec>:
		.section .text
		.global	delay_usec

 delay_usec:		;4 cycles of RCALL
					   ;2 cycles for parameter => parameter is in r24 and r25
	ldi r18, 0x01	;set to one
 124:	21 e0       	ldi	r18, 0x01	; 1
	eor r19, r19	;zero out high bits
 126:	33 27       	eor	r19, r19
	cp	r18, r24
 128:	28 17       	cp	r18, r24
	cpc r19, r25	;Check if parameter is 1
 12a:	39 07       	cpc	r19, r25
	brne testzero	;two cycles if true, one if false
 12c:	09 f4       	brne	.+2      	; 0x130 <testzero>
	ret				;If one, branch fails
 12e:	08 95       	ret

00000130 <testzero>:
	
testzero:			;at 12 cycles
	eor r18, r18	;zero low bits
 130:	22 27       	eor	r18, r18
	cp  r18, r24
 132:	28 17       	cp	r18, r24
	cpc r19, r25	
 134:	39 07       	cpc	r19, r25
	breq zero		;at 16 cycles if fail, 17 if parameter is zero
 136:	79 f0       	breq	.+30     	; 0x156 <zero>

00000138 <loop>:

loop:				;16 cycles have passed, parameter needs to be parameter-1
	sbiw r24, 0x01	;2 cycles, parameter-1
 138:	01 97       	sbiw	r24, 0x01	; 1
	nop
 13a:	00 00       	nop
	nop
 13c:	00 00       	nop
	nop
 13e:	00 00       	nop
	ldi r18, 0x01	;set to one
 140:	21 e0       	ldi	r18, 0x01	; 1
	eor r19, r19	;zero out high bits
 142:	33 27       	eor	r19, r19
	cp	r18, r24
 144:	28 17       	cp	r18, r24
	cpc r19, r25
 146:	39 07       	cpc	r19, r25
	breq one		;if one => 2 cycles, if greater than => 1 cycle
 148:	29 f0       	breq	.+10     	; 0x154 <one>
	...
	nop
	nop
	nop
	nop
	rjmp loop
 152:	f2 cf       	rjmp	.-28     	; 0x138 <loop>

00000154 <one>:

one:
	ret				;5 cycles
 154:	08 95       	ret

00000156 <zero>:
		
zero:				;17 cycles, need to burn 15, then jump to loop with MAX-1
	ldi	r24, 0xFF				
 156:	8f ef       	ldi	r24, 0xFF	; 255
	ldi r25, 0xFF	;sets parameter to 65536-1
 158:	9f ef       	ldi	r25, 0xFF	; 255
	...
	nop
	nop
	nop
	nop
	nop
	nop
 16e:	00 00       	nop
 170:	e3 cf       	rjmp	.-58     	; 0x138 <loop>

00000172 <update_lamp>:
   }
}

void sensor_setup(void) {
   DDRF &= ~SENSOR_MASK;   //Sets SENSOR_PIN for input from the temperature sensor
   PORTF |= SENSOR_MASK;   //Sets SENSOR_PIN to idle at high temperature
 172:	cf 92       	push	r12
 174:	df 92       	push	r13
 176:	ef 92       	push	r14
 178:	ff 92       	push	r15
 17a:	6b 01       	movw	r12, r22
 17c:	7c 01       	movw	r14, r24
 17e:	81 9a       	sbi	0x10, 1	; 16
 180:	9b 01       	movw	r18, r22
 182:	ac 01       	movw	r20, r24
 184:	60 91 04 02 	lds	r22, 0x0204	; 0x800204 <TLOW>
 188:	70 91 05 02 	lds	r23, 0x0205	; 0x800205 <TLOW+0x1>
 18c:	80 91 06 02 	lds	r24, 0x0206	; 0x800206 <TLOW+0x2>
 190:	90 91 07 02 	lds	r25, 0x0207	; 0x800207 <TLOW+0x3>
 194:	c4 d2       	rcall	.+1416   	; 0x71e <__gesf2>
 196:	18 16       	cp	r1, r24
 198:	2c f4       	brge	.+10     	; 0x1a4 <update_lamp+0x32>
 19a:	89 9a       	sbi	0x11, 1	; 17
 19c:	81 e0       	ldi	r24, 0x01	; 1
 19e:	80 93 0e 02 	sts	0x020E, r24	; 0x80020e <__data_end>
 1a2:	12 c0       	rjmp	.+36     	; 0x1c8 <update_lamp+0x56>
 1a4:	20 91 00 02 	lds	r18, 0x0200	; 0x800200 <THIGH>
 1a8:	30 91 01 02 	lds	r19, 0x0201	; 0x800201 <THIGH+0x1>
 1ac:	40 91 02 02 	lds	r20, 0x0202	; 0x800202 <THIGH+0x2>
 1b0:	50 91 03 02 	lds	r21, 0x0203	; 0x800203 <THIGH+0x3>
 1b4:	c7 01       	movw	r24, r14
 1b6:	b6 01       	movw	r22, r12
 1b8:	b2 d2       	rcall	.+1380   	; 0x71e <__gesf2>
 1ba:	18 16       	cp	r1, r24
 1bc:	2c f4       	brge	.+10     	; 0x1c8 <update_lamp+0x56>
 1be:	81 b3       	in	r24, 0x11	; 17
 1c0:	8c 7f       	andi	r24, 0xFC	; 252
 1c2:	81 bb       	out	0x11, r24	; 17
 1c4:	10 92 0e 02 	sts	0x020E, r1	; 0x80020e <__data_end>
 1c8:	ff 90       	pop	r15
 1ca:	ef 90       	pop	r14
 1cc:	df 90       	pop	r13
 1ce:	cf 90       	pop	r12
 1d0:	08 95       	ret

000001d2 <temp_to_f>:
 1d2:	cf 93       	push	r28
 1d4:	df 93       	push	r29
 1d6:	ec 01       	movw	r28, r24
 1d8:	bc 01       	movw	r22, r24
 1da:	7f 77       	andi	r23, 0x7F	; 127
 1dc:	80 e0       	ldi	r24, 0x00	; 0
 1de:	90 e0       	ldi	r25, 0x00	; 0
 1e0:	10 d2       	rcall	.+1056   	; 0x602 <__floatunsisf>
 1e2:	20 e0       	ldi	r18, 0x00	; 0
 1e4:	30 e0       	ldi	r19, 0x00	; 0
 1e6:	40 e2       	ldi	r20, 0x20	; 32
 1e8:	51 e4       	ldi	r21, 0x41	; 65
 1ea:	77 d1       	rcall	.+750    	; 0x4da <__divsf3>
 1ec:	26 e6       	ldi	r18, 0x66	; 102
 1ee:	36 e6       	ldi	r19, 0x66	; 102
 1f0:	46 ee       	ldi	r20, 0xE6	; 230
 1f2:	5f e3       	ldi	r21, 0x3F	; 63
 1f4:	98 d2       	rcall	.+1328   	; 0x726 <__mulsf3>
 1f6:	20 e0       	ldi	r18, 0x00	; 0
 1f8:	30 e0       	ldi	r19, 0x00	; 0
 1fa:	40 e0       	ldi	r20, 0x00	; 0
 1fc:	52 e4       	ldi	r21, 0x42	; 66
 1fe:	09 d1       	rcall	.+530    	; 0x412 <__addsf3>
 200:	dd 23       	and	r29, r29
 202:	0c f4       	brge	.+2      	; 0x206 <temp_to_f+0x34>
 204:	90 58       	subi	r25, 0x80	; 128
 206:	df 91       	pop	r29
 208:	cf 91       	pop	r28
 20a:	08 95       	ret

0000020c <temp_to_string>:
 20c:	cf 92       	push	r12
 20e:	df 92       	push	r13
 210:	ef 92       	push	r14
 212:	ff 92       	push	r15
 214:	0f 93       	push	r16
 216:	1f 93       	push	r17
 218:	cf 93       	push	r28
 21a:	df 93       	push	r29
 21c:	ec 01       	movw	r28, r24
 21e:	8b 01       	movw	r16, r22
 220:	7f 77       	andi	r23, 0x7F	; 127
 222:	80 e0       	ldi	r24, 0x00	; 0
 224:	90 e0       	ldi	r25, 0x00	; 0
 226:	ed d1       	rcall	.+986    	; 0x602 <__floatunsisf>
 228:	26 e6       	ldi	r18, 0x66	; 102
 22a:	36 e6       	ldi	r19, 0x66	; 102
 22c:	46 ee       	ldi	r20, 0xE6	; 230
 22e:	5f e3       	ldi	r21, 0x3F	; 63
 230:	7a d2       	rcall	.+1268   	; 0x726 <__mulsf3>
 232:	20 e0       	ldi	r18, 0x00	; 0
 234:	30 e0       	ldi	r19, 0x00	; 0
 236:	40 ea       	ldi	r20, 0xA0	; 160
 238:	53 e4       	ldi	r21, 0x43	; 67
 23a:	eb d0       	rcall	.+470    	; 0x412 <__addsf3>
 23c:	b6 d1       	rcall	.+876    	; 0x5aa <__fixunssfsi>
 23e:	6b 01       	movw	r12, r22
 240:	7c 01       	movw	r14, r24
 242:	11 23       	and	r17, r17
 244:	1c f4       	brge	.+6      	; 0x24c <temp_to_string+0x40>
 246:	8d e2       	ldi	r24, 0x2D	; 45
 248:	88 83       	st	Y, r24
 24a:	02 c0       	rjmp	.+4      	; 0x250 <temp_to_string+0x44>
 24c:	80 e2       	ldi	r24, 0x20	; 32
 24e:	88 83       	st	Y, r24
 250:	96 01       	movw	r18, r12
 252:	ad ec       	ldi	r26, 0xCD	; 205
 254:	bc ec       	ldi	r27, 0xCC	; 204
 256:	ee d2       	rcall	.+1500   	; 0x834 <__umulhisi3>
 258:	ac 01       	movw	r20, r24
 25a:	56 95       	lsr	r21
 25c:	47 95       	ror	r20
 25e:	56 95       	lsr	r21
 260:	47 95       	ror	r20
 262:	56 95       	lsr	r21
 264:	47 95       	ror	r20
 266:	ca 01       	movw	r24, r20
 268:	88 0f       	add	r24, r24
 26a:	99 1f       	adc	r25, r25
 26c:	44 0f       	add	r20, r20
 26e:	55 1f       	adc	r21, r21
 270:	44 0f       	add	r20, r20
 272:	55 1f       	adc	r21, r21
 274:	44 0f       	add	r20, r20
 276:	55 1f       	adc	r21, r21
 278:	48 0f       	add	r20, r24
 27a:	59 1f       	adc	r21, r25
 27c:	c6 01       	movw	r24, r12
 27e:	84 1b       	sub	r24, r20
 280:	95 0b       	sbc	r25, r21
 282:	9f 93       	push	r25
 284:	8f 93       	push	r24
 286:	d6 d2       	rcall	.+1452   	; 0x834 <__umulhisi3>
 288:	96 95       	lsr	r25
 28a:	87 95       	ror	r24
 28c:	96 95       	lsr	r25
 28e:	87 95       	ror	r24
 290:	96 95       	lsr	r25
 292:	87 95       	ror	r24
 294:	9f 93       	push	r25
 296:	8f 93       	push	r24
 298:	88 e0       	ldi	r24, 0x08	; 8
 29a:	92 e0       	ldi	r25, 0x02	; 2
 29c:	9f 93       	push	r25
 29e:	8f 93       	push	r24
 2a0:	21 96       	adiw	r28, 0x01	; 1
 2a2:	df 93       	push	r29
 2a4:	cf 93       	push	r28
 2a6:	d5 d2       	rcall	.+1450   	; 0x852 <sprintf>
 2a8:	8d b7       	in	r24, 0x3d	; 61
 2aa:	9e b7       	in	r25, 0x3e	; 62
 2ac:	08 96       	adiw	r24, 0x08	; 8
 2ae:	0f b6       	in	r0, 0x3f	; 63
 2b0:	f8 94       	cli
 2b2:	9e bf       	out	0x3e, r25	; 62
 2b4:	0f be       	out	0x3f, r0	; 63
 2b6:	8d bf       	out	0x3d, r24	; 61
 2b8:	df 91       	pop	r29
 2ba:	cf 91       	pop	r28
 2bc:	1f 91       	pop	r17
 2be:	0f 91       	pop	r16
 2c0:	ff 90       	pop	r15
 2c2:	ef 90       	pop	r14
 2c4:	df 90       	pop	r13
 2c6:	cf 90       	pop	r12
 2c8:	08 95       	ret

000002ca <polled_wait>:
 2ca:	9f b1       	in	r25, 0x0f	; 15
 2cc:	91 70       	andi	r25, 0x01	; 1
 2ce:	8f b1       	in	r24, 0x0f	; 15
 2d0:	81 70       	andi	r24, 0x01	; 1
 2d2:	89 17       	cp	r24, r25
 2d4:	e1 f3       	breq	.-8      	; 0x2ce <polled_wait+0x4>
 2d6:	08 95       	ret

000002d8 <sensor_read>:
 2d8:	0f 93       	push	r16
 2da:	1f 93       	push	r17
 2dc:	cf 93       	push	r28
 2de:	df 93       	push	r29
 2e0:	78 94       	sei
 2e2:	80 9a       	sbi	0x10, 0	; 16
 2e4:	81 b3       	in	r24, 0x11	; 17
 2e6:	11 ba       	out	0x11, r1	; 17
 2e8:	8f e1       	ldi	r24, 0x1F	; 31
 2ea:	9e e4       	ldi	r25, 0x4E	; 78
 2ec:	01 97       	sbiw	r24, 0x01	; 1
 2ee:	f1 f7       	brne	.-4      	; 0x2ec <sensor_read+0x14>
 2f0:	00 c0       	rjmp	.+0      	; 0x2f2 <sensor_read+0x1a>
 2f2:	00 00       	nop
 2f4:	80 98       	cbi	0x10, 0	; 16
 2f6:	88 9a       	sbi	0x11, 0	; 17
 2f8:	e8 df       	rcall	.-48     	; 0x2ca <polled_wait>
 2fa:	e7 df       	rcall	.-50     	; 0x2ca <polled_wait>
 2fc:	e6 df       	rcall	.-52     	; 0x2ca <polled_wait>
 2fe:	c0 e1       	ldi	r28, 0x10	; 16
 300:	d0 e0       	ldi	r29, 0x00	; 0
 302:	e3 df       	rcall	.-58     	; 0x2ca <polled_wait>
 304:	88 e2       	ldi	r24, 0x28	; 40
 306:	0e df       	rcall	.-484    	; 0x124 <delay_usec>
 308:	78 9b       	sbis	0x0f, 0	; 15
 30a:	02 c0       	rjmp	.+4      	; 0x310 <sensor_read+0x38>
 30c:	88 e2       	ldi	r24, 0x28	; 40
 30e:	0a df       	rcall	.-492    	; 0x124 <delay_usec>
 310:	21 97       	sbiw	r28, 0x01	; 1
 312:	b9 f7       	brne	.-18     	; 0x302 <sensor_read+0x2a>
 314:	c0 e1       	ldi	r28, 0x10	; 16
 316:	d0 e0       	ldi	r29, 0x00	; 0
 318:	00 e0       	ldi	r16, 0x00	; 0
 31a:	10 e0       	ldi	r17, 0x00	; 0
 31c:	d6 df       	rcall	.-84     	; 0x2ca <polled_wait>
 31e:	88 e2       	ldi	r24, 0x28	; 40
 320:	01 df       	rcall	.-510    	; 0x124 <delay_usec>
 322:	78 9b       	sbis	0x0f, 0	; 15
 324:	06 c0       	rjmp	.+12     	; 0x332 <sensor_read+0x5a>
 326:	00 0f       	add	r16, r16
 328:	11 1f       	adc	r17, r17
 32a:	01 60       	ori	r16, 0x01	; 1
 32c:	88 e2       	ldi	r24, 0x28	; 40
 32e:	fa de       	rcall	.-524    	; 0x124 <delay_usec>
 330:	02 c0       	rjmp	.+4      	; 0x336 <sensor_read+0x5e>
 332:	00 0f       	add	r16, r16
 334:	11 1f       	adc	r17, r17
 336:	21 97       	sbiw	r28, 0x01	; 1
 338:	89 f7       	brne	.-30     	; 0x31c <sensor_read+0x44>
 33a:	0a c0       	rjmp	.+20     	; 0x350 <sensor_read+0x78>
 33c:	c6 df       	rcall	.-116    	; 0x2ca <polled_wait>
 33e:	88 e2       	ldi	r24, 0x28	; 40
 340:	f1 de       	rcall	.-542    	; 0x124 <delay_usec>
 342:	78 9b       	sbis	0x0f, 0	; 15
 344:	02 c0       	rjmp	.+4      	; 0x34a <sensor_read+0x72>
 346:	88 e2       	ldi	r24, 0x28	; 40
 348:	ed de       	rcall	.-550    	; 0x124 <delay_usec>
 34a:	21 97       	sbiw	r28, 0x01	; 1
 34c:	b9 f7       	brne	.-18     	; 0x33c <sensor_read+0x64>
 34e:	03 c0       	rjmp	.+6      	; 0x356 <sensor_read+0x7e>
 350:	c8 e0       	ldi	r28, 0x08	; 8
 352:	d0 e0       	ldi	r29, 0x00	; 0
 354:	f3 cf       	rjmp	.-26     	; 0x33c <sensor_read+0x64>
 356:	f8 94       	cli
 358:	c8 01       	movw	r24, r16
 35a:	df 91       	pop	r29
 35c:	cf 91       	pop	r28
 35e:	1f 91       	pop	r17
 360:	0f 91       	pop	r16
 362:	08 95       	ret

00000364 <serial_setup>:
}

//Sets up USART0 for 8N1, 9600 baud communication
void serial_setup(void) {
   UCSR0A = 0x00;
 364:	10 92 c0 00 	sts	0x00C0, r1	; 0x8000c0 <__TEXT_REGION_LENGTH__+0x7000c0>
   UCSR0B = 0x00;
 368:	a1 ec       	ldi	r26, 0xC1	; 193
 36a:	b0 e0       	ldi	r27, 0x00	; 0
 36c:	1c 92       	st	X, r1
   UCSR0C = 0x00;
 36e:	e2 ec       	ldi	r30, 0xC2	; 194
 370:	f0 e0       	ldi	r31, 0x00	; 0
 372:	10 82       	st	Z, r1
   
   UCSR0B |= 1 << RXEN0;   //Enable receive
 374:	8c 91       	ld	r24, X
 376:	80 61       	ori	r24, 0x10	; 16
 378:	8c 93       	st	X, r24
   UCSR0B |= 1 << TXEN0;   //Enable transmit
 37a:	8c 91       	ld	r24, X
 37c:	88 60       	ori	r24, 0x08	; 8
 37e:	8c 93       	st	X, r24
   
   UCSR0C |= 1 << UCSZ00;  //Setting number of data bits to 8
 380:	80 81       	ld	r24, Z
 382:	82 60       	ori	r24, 0x02	; 2
 384:	80 83       	st	Z, r24
   UCSR0C |= 1 << UCSZ01;
 386:	80 81       	ld	r24, Z
 388:	84 60       	ori	r24, 0x04	; 4
 38a:	80 83       	st	Z, r24
   
   UBRR0 = 103; //Setting up baud rate for 9600 baud
 38c:	87 e6       	ldi	r24, 0x67	; 103
 38e:	90 e0       	ldi	r25, 0x00	; 0
 390:	90 93 c5 00 	sts	0x00C5, r25	; 0x8000c5 <__TEXT_REGION_LENGTH__+0x7000c5>
 394:	80 93 c4 00 	sts	0x00C4, r24	; 0x8000c4 <__TEXT_REGION_LENGTH__+0x7000c4>
 398:	08 95       	ret

0000039a <serial_write>:
}

//Writes the parameter to USART0
void serial_write(char data) {
   while(!(UCSR0A & (1 << UDRE0))) {
 39a:	e0 ec       	ldi	r30, 0xC0	; 192
 39c:	f0 e0       	ldi	r31, 0x00	; 0
 39e:	90 81       	ld	r25, Z
 3a0:	95 ff       	sbrs	r25, 5
 3a2:	fd cf       	rjmp	.-6      	; 0x39e <serial_write+0x4>
      //Wait until data register is empty
   }
   UDR0 = data;
 3a4:	80 93 c6 00 	sts	0x00C6, r24	; 0x8000c6 <__TEXT_REGION_LENGTH__+0x7000c6>
 3a8:	08 95       	ret

000003aa <serial_write_word>:
}

void serial_write_word(char * data) {
 3aa:	cf 93       	push	r28
 3ac:	df 93       	push	r29
 3ae:	ec 01       	movw	r28, r24
   for(int i = 0; data[i] != '\0'; i++) {
 3b0:	88 81       	ld	r24, Y
 3b2:	88 23       	and	r24, r24
 3b4:	29 f0       	breq	.+10     	; 0x3c0 <serial_write_word+0x16>
 3b6:	21 96       	adiw	r28, 0x01	; 1
      serial_write(data[i]);
 3b8:	f0 df       	rcall	.-32     	; 0x39a <serial_write>
   }
   UDR0 = data;
}

void serial_write_word(char * data) {
   for(int i = 0; data[i] != '\0'; i++) {
 3ba:	89 91       	ld	r24, Y+
 3bc:	81 11       	cpse	r24, r1
 3be:	fc cf       	rjmp	.-8      	; 0x3b8 <serial_write_word+0xe>
      serial_write(data[i]);
   }
}
 3c0:	df 91       	pop	r29
 3c2:	cf 91       	pop	r28
 3c4:	08 95       	ret

000003c6 <main>:
int PERIOD = 2;   // time in seconds
bool PRINT = false;
bool HEATING = false;


int main(void) {
 3c6:	cf 93       	push	r28
 3c8:	df 93       	push	r29
 3ca:	00 d0       	rcall	.+0      	; 0x3cc <main+0x6>
 3cc:	00 d0       	rcall	.+0      	; 0x3ce <main+0x8>
 3ce:	cd b7       	in	r28, 0x3d	; 61
 3d0:	de b7       	in	r29, 0x3e	; 62
	#else
		//round up by default
		__ticks_dc = (uint32_t)(ceil(fabs(__tmp)));
	#endif

	__builtin_avr_delay_cycles(__ticks_dc);
 3d2:	2f ef       	ldi	r18, 0xFF	; 255
 3d4:	83 ed       	ldi	r24, 0xD3	; 211
 3d6:	90 e3       	ldi	r25, 0x30	; 48
 3d8:	21 50       	subi	r18, 0x01	; 1
 3da:	80 40       	sbci	r24, 0x00	; 0
 3dc:	90 40       	sbci	r25, 0x00	; 0
 3de:	e1 f7       	brne	.-8      	; 0x3d8 <main+0x12>
 3e0:	00 c0       	rjmp	.+0      	; 0x3e2 <main+0x1c>
 3e2:	00 00       	nop
   _delay_ms(1000);
   serial_setup();
 3e4:	bf df       	rcall	.-130    	; 0x364 <serial_setup>
   
    while (1) 
    {
       word temp = sensor_read();
 3e6:	78 df       	rcall	.-272    	; 0x2d8 <sensor_read>
 3e8:	8c 01       	movw	r16, r24
       float tempf = temp_to_f(temp);
 3ea:	f3 de       	rcall	.-538    	; 0x1d2 <temp_to_f>
       update_lamp(tempf);
 3ec:	c2 de       	rcall	.-636    	; 0x172 <update_lamp>
       
       char tempWord[6];
       temp_to_string(tempWord, temp);
 3ee:	b8 01       	movw	r22, r16
 3f0:	ce 01       	movw	r24, r28
 3f2:	01 96       	adiw	r24, 0x01	; 1
 3f4:	0b df       	rcall	.-490    	; 0x20c <temp_to_string>
       serial_write_word(tempWord);
 3f6:	ce 01       	movw	r24, r28
 3f8:	01 96       	adiw	r24, 0x01	; 1
 3fa:	d7 df       	rcall	.-82     	; 0x3aa <serial_write_word>
 3fc:	2f ef       	ldi	r18, 0xFF	; 255
 3fe:	83 ed       	ldi	r24, 0xD3	; 211
 400:	90 e3       	ldi	r25, 0x30	; 48
 402:	21 50       	subi	r18, 0x01	; 1
 404:	80 40       	sbci	r24, 0x00	; 0
 406:	90 40       	sbci	r25, 0x00	; 0
 408:	e1 f7       	brne	.-8      	; 0x402 <__LOCK_REGION_LENGTH__+0x2>
 40a:	00 c0       	rjmp	.+0      	; 0x40c <__LOCK_REGION_LENGTH__+0xc>
 40c:	00 00       	nop
   
       _delay_ms(1000);
    }
 40e:	eb cf       	rjmp	.-42     	; 0x3e6 <main+0x20>

00000410 <__subsf3>:
 410:	50 58       	subi	r21, 0x80	; 128

00000412 <__addsf3>:
 412:	bb 27       	eor	r27, r27
 414:	aa 27       	eor	r26, r26
 416:	0e d0       	rcall	.+28     	; 0x434 <__addsf3x>
 418:	48 c1       	rjmp	.+656    	; 0x6aa <__fp_round>
 41a:	39 d1       	rcall	.+626    	; 0x68e <__fp_pscA>
 41c:	30 f0       	brcs	.+12     	; 0x42a <__addsf3+0x18>
 41e:	3e d1       	rcall	.+636    	; 0x69c <__fp_pscB>
 420:	20 f0       	brcs	.+8      	; 0x42a <__addsf3+0x18>
 422:	31 f4       	brne	.+12     	; 0x430 <__addsf3+0x1e>
 424:	9f 3f       	cpi	r25, 0xFF	; 255
 426:	11 f4       	brne	.+4      	; 0x42c <__addsf3+0x1a>
 428:	1e f4       	brtc	.+6      	; 0x430 <__addsf3+0x1e>
 42a:	2e c1       	rjmp	.+604    	; 0x688 <__fp_nan>
 42c:	0e f4       	brtc	.+2      	; 0x430 <__addsf3+0x1e>
 42e:	e0 95       	com	r30
 430:	e7 fb       	bst	r30, 7
 432:	24 c1       	rjmp	.+584    	; 0x67c <__fp_inf>

00000434 <__addsf3x>:
 434:	e9 2f       	mov	r30, r25
 436:	4a d1       	rcall	.+660    	; 0x6cc <__fp_split3>
 438:	80 f3       	brcs	.-32     	; 0x41a <__addsf3+0x8>
 43a:	ba 17       	cp	r27, r26
 43c:	62 07       	cpc	r22, r18
 43e:	73 07       	cpc	r23, r19
 440:	84 07       	cpc	r24, r20
 442:	95 07       	cpc	r25, r21
 444:	18 f0       	brcs	.+6      	; 0x44c <__addsf3x+0x18>
 446:	71 f4       	brne	.+28     	; 0x464 <__addsf3x+0x30>
 448:	9e f5       	brtc	.+102    	; 0x4b0 <__addsf3x+0x7c>
 44a:	62 c1       	rjmp	.+708    	; 0x710 <__fp_zero>
 44c:	0e f4       	brtc	.+2      	; 0x450 <__addsf3x+0x1c>
 44e:	e0 95       	com	r30
 450:	0b 2e       	mov	r0, r27
 452:	ba 2f       	mov	r27, r26
 454:	a0 2d       	mov	r26, r0
 456:	0b 01       	movw	r0, r22
 458:	b9 01       	movw	r22, r18
 45a:	90 01       	movw	r18, r0
 45c:	0c 01       	movw	r0, r24
 45e:	ca 01       	movw	r24, r20
 460:	a0 01       	movw	r20, r0
 462:	11 24       	eor	r1, r1
 464:	ff 27       	eor	r31, r31
 466:	59 1b       	sub	r21, r25
 468:	99 f0       	breq	.+38     	; 0x490 <__addsf3x+0x5c>
 46a:	59 3f       	cpi	r21, 0xF9	; 249
 46c:	50 f4       	brcc	.+20     	; 0x482 <__addsf3x+0x4e>
 46e:	50 3e       	cpi	r21, 0xE0	; 224
 470:	68 f1       	brcs	.+90     	; 0x4cc <__addsf3x+0x98>
 472:	1a 16       	cp	r1, r26
 474:	f0 40       	sbci	r31, 0x00	; 0
 476:	a2 2f       	mov	r26, r18
 478:	23 2f       	mov	r18, r19
 47a:	34 2f       	mov	r19, r20
 47c:	44 27       	eor	r20, r20
 47e:	58 5f       	subi	r21, 0xF8	; 248
 480:	f3 cf       	rjmp	.-26     	; 0x468 <__addsf3x+0x34>
 482:	46 95       	lsr	r20
 484:	37 95       	ror	r19
 486:	27 95       	ror	r18
 488:	a7 95       	ror	r26
 48a:	f0 40       	sbci	r31, 0x00	; 0
 48c:	53 95       	inc	r21
 48e:	c9 f7       	brne	.-14     	; 0x482 <__addsf3x+0x4e>
 490:	7e f4       	brtc	.+30     	; 0x4b0 <__addsf3x+0x7c>
 492:	1f 16       	cp	r1, r31
 494:	ba 0b       	sbc	r27, r26
 496:	62 0b       	sbc	r22, r18
 498:	73 0b       	sbc	r23, r19
 49a:	84 0b       	sbc	r24, r20
 49c:	ba f0       	brmi	.+46     	; 0x4cc <__addsf3x+0x98>
 49e:	91 50       	subi	r25, 0x01	; 1
 4a0:	a1 f0       	breq	.+40     	; 0x4ca <__addsf3x+0x96>
 4a2:	ff 0f       	add	r31, r31
 4a4:	bb 1f       	adc	r27, r27
 4a6:	66 1f       	adc	r22, r22
 4a8:	77 1f       	adc	r23, r23
 4aa:	88 1f       	adc	r24, r24
 4ac:	c2 f7       	brpl	.-16     	; 0x49e <__addsf3x+0x6a>
 4ae:	0e c0       	rjmp	.+28     	; 0x4cc <__addsf3x+0x98>
 4b0:	ba 0f       	add	r27, r26
 4b2:	62 1f       	adc	r22, r18
 4b4:	73 1f       	adc	r23, r19
 4b6:	84 1f       	adc	r24, r20
 4b8:	48 f4       	brcc	.+18     	; 0x4cc <__addsf3x+0x98>
 4ba:	87 95       	ror	r24
 4bc:	77 95       	ror	r23
 4be:	67 95       	ror	r22
 4c0:	b7 95       	ror	r27
 4c2:	f7 95       	ror	r31
 4c4:	9e 3f       	cpi	r25, 0xFE	; 254
 4c6:	08 f0       	brcs	.+2      	; 0x4ca <__addsf3x+0x96>
 4c8:	b3 cf       	rjmp	.-154    	; 0x430 <__addsf3+0x1e>
 4ca:	93 95       	inc	r25
 4cc:	88 0f       	add	r24, r24
 4ce:	08 f0       	brcs	.+2      	; 0x4d2 <__addsf3x+0x9e>
 4d0:	99 27       	eor	r25, r25
 4d2:	ee 0f       	add	r30, r30
 4d4:	97 95       	ror	r25
 4d6:	87 95       	ror	r24
 4d8:	08 95       	ret

000004da <__divsf3>:
 4da:	0c d0       	rcall	.+24     	; 0x4f4 <__divsf3x>
 4dc:	e6 c0       	rjmp	.+460    	; 0x6aa <__fp_round>
 4de:	de d0       	rcall	.+444    	; 0x69c <__fp_pscB>
 4e0:	40 f0       	brcs	.+16     	; 0x4f2 <__divsf3+0x18>
 4e2:	d5 d0       	rcall	.+426    	; 0x68e <__fp_pscA>
 4e4:	30 f0       	brcs	.+12     	; 0x4f2 <__divsf3+0x18>
 4e6:	21 f4       	brne	.+8      	; 0x4f0 <__divsf3+0x16>
 4e8:	5f 3f       	cpi	r21, 0xFF	; 255
 4ea:	19 f0       	breq	.+6      	; 0x4f2 <__divsf3+0x18>
 4ec:	c7 c0       	rjmp	.+398    	; 0x67c <__fp_inf>
 4ee:	51 11       	cpse	r21, r1
 4f0:	10 c1       	rjmp	.+544    	; 0x712 <__fp_szero>
 4f2:	ca c0       	rjmp	.+404    	; 0x688 <__fp_nan>

000004f4 <__divsf3x>:
 4f4:	eb d0       	rcall	.+470    	; 0x6cc <__fp_split3>
 4f6:	98 f3       	brcs	.-26     	; 0x4de <__divsf3+0x4>

000004f8 <__divsf3_pse>:
 4f8:	99 23       	and	r25, r25
 4fa:	c9 f3       	breq	.-14     	; 0x4ee <__divsf3+0x14>
 4fc:	55 23       	and	r21, r21
 4fe:	b1 f3       	breq	.-20     	; 0x4ec <__divsf3+0x12>
 500:	95 1b       	sub	r25, r21
 502:	55 0b       	sbc	r21, r21
 504:	bb 27       	eor	r27, r27
 506:	aa 27       	eor	r26, r26
 508:	62 17       	cp	r22, r18
 50a:	73 07       	cpc	r23, r19
 50c:	84 07       	cpc	r24, r20
 50e:	38 f0       	brcs	.+14     	; 0x51e <__divsf3_pse+0x26>
 510:	9f 5f       	subi	r25, 0xFF	; 255
 512:	5f 4f       	sbci	r21, 0xFF	; 255
 514:	22 0f       	add	r18, r18
 516:	33 1f       	adc	r19, r19
 518:	44 1f       	adc	r20, r20
 51a:	aa 1f       	adc	r26, r26
 51c:	a9 f3       	breq	.-22     	; 0x508 <__divsf3_pse+0x10>
 51e:	33 d0       	rcall	.+102    	; 0x586 <__divsf3_pse+0x8e>
 520:	0e 2e       	mov	r0, r30
 522:	3a f0       	brmi	.+14     	; 0x532 <__divsf3_pse+0x3a>
 524:	e0 e8       	ldi	r30, 0x80	; 128
 526:	30 d0       	rcall	.+96     	; 0x588 <__divsf3_pse+0x90>
 528:	91 50       	subi	r25, 0x01	; 1
 52a:	50 40       	sbci	r21, 0x00	; 0
 52c:	e6 95       	lsr	r30
 52e:	00 1c       	adc	r0, r0
 530:	ca f7       	brpl	.-14     	; 0x524 <__divsf3_pse+0x2c>
 532:	29 d0       	rcall	.+82     	; 0x586 <__divsf3_pse+0x8e>
 534:	fe 2f       	mov	r31, r30
 536:	27 d0       	rcall	.+78     	; 0x586 <__divsf3_pse+0x8e>
 538:	66 0f       	add	r22, r22
 53a:	77 1f       	adc	r23, r23
 53c:	88 1f       	adc	r24, r24
 53e:	bb 1f       	adc	r27, r27
 540:	26 17       	cp	r18, r22
 542:	37 07       	cpc	r19, r23
 544:	48 07       	cpc	r20, r24
 546:	ab 07       	cpc	r26, r27
 548:	b0 e8       	ldi	r27, 0x80	; 128
 54a:	09 f0       	breq	.+2      	; 0x54e <__divsf3_pse+0x56>
 54c:	bb 0b       	sbc	r27, r27
 54e:	80 2d       	mov	r24, r0
 550:	bf 01       	movw	r22, r30
 552:	ff 27       	eor	r31, r31
 554:	93 58       	subi	r25, 0x83	; 131
 556:	5f 4f       	sbci	r21, 0xFF	; 255
 558:	2a f0       	brmi	.+10     	; 0x564 <__divsf3_pse+0x6c>
 55a:	9e 3f       	cpi	r25, 0xFE	; 254
 55c:	51 05       	cpc	r21, r1
 55e:	68 f0       	brcs	.+26     	; 0x57a <__divsf3_pse+0x82>
 560:	8d c0       	rjmp	.+282    	; 0x67c <__fp_inf>
 562:	d7 c0       	rjmp	.+430    	; 0x712 <__fp_szero>
 564:	5f 3f       	cpi	r21, 0xFF	; 255
 566:	ec f3       	brlt	.-6      	; 0x562 <__divsf3_pse+0x6a>
 568:	98 3e       	cpi	r25, 0xE8	; 232
 56a:	dc f3       	brlt	.-10     	; 0x562 <__divsf3_pse+0x6a>
 56c:	86 95       	lsr	r24
 56e:	77 95       	ror	r23
 570:	67 95       	ror	r22
 572:	b7 95       	ror	r27
 574:	f7 95       	ror	r31
 576:	9f 5f       	subi	r25, 0xFF	; 255
 578:	c9 f7       	brne	.-14     	; 0x56c <__divsf3_pse+0x74>
 57a:	88 0f       	add	r24, r24
 57c:	91 1d       	adc	r25, r1
 57e:	96 95       	lsr	r25
 580:	87 95       	ror	r24
 582:	97 f9       	bld	r25, 7
 584:	08 95       	ret
 586:	e1 e0       	ldi	r30, 0x01	; 1
 588:	66 0f       	add	r22, r22
 58a:	77 1f       	adc	r23, r23
 58c:	88 1f       	adc	r24, r24
 58e:	bb 1f       	adc	r27, r27
 590:	62 17       	cp	r22, r18
 592:	73 07       	cpc	r23, r19
 594:	84 07       	cpc	r24, r20
 596:	ba 07       	cpc	r27, r26
 598:	20 f0       	brcs	.+8      	; 0x5a2 <__divsf3_pse+0xaa>
 59a:	62 1b       	sub	r22, r18
 59c:	73 0b       	sbc	r23, r19
 59e:	84 0b       	sbc	r24, r20
 5a0:	ba 0b       	sbc	r27, r26
 5a2:	ee 1f       	adc	r30, r30
 5a4:	88 f7       	brcc	.-30     	; 0x588 <__divsf3_pse+0x90>
 5a6:	e0 95       	com	r30
 5a8:	08 95       	ret

000005aa <__fixunssfsi>:
 5aa:	98 d0       	rcall	.+304    	; 0x6dc <__fp_splitA>
 5ac:	88 f0       	brcs	.+34     	; 0x5d0 <__fixunssfsi+0x26>
 5ae:	9f 57       	subi	r25, 0x7F	; 127
 5b0:	90 f0       	brcs	.+36     	; 0x5d6 <__fixunssfsi+0x2c>
 5b2:	b9 2f       	mov	r27, r25
 5b4:	99 27       	eor	r25, r25
 5b6:	b7 51       	subi	r27, 0x17	; 23
 5b8:	a0 f0       	brcs	.+40     	; 0x5e2 <__fixunssfsi+0x38>
 5ba:	d1 f0       	breq	.+52     	; 0x5f0 <__fixunssfsi+0x46>
 5bc:	66 0f       	add	r22, r22
 5be:	77 1f       	adc	r23, r23
 5c0:	88 1f       	adc	r24, r24
 5c2:	99 1f       	adc	r25, r25
 5c4:	1a f0       	brmi	.+6      	; 0x5cc <__fixunssfsi+0x22>
 5c6:	ba 95       	dec	r27
 5c8:	c9 f7       	brne	.-14     	; 0x5bc <__fixunssfsi+0x12>
 5ca:	12 c0       	rjmp	.+36     	; 0x5f0 <__fixunssfsi+0x46>
 5cc:	b1 30       	cpi	r27, 0x01	; 1
 5ce:	81 f0       	breq	.+32     	; 0x5f0 <__fixunssfsi+0x46>
 5d0:	9f d0       	rcall	.+318    	; 0x710 <__fp_zero>
 5d2:	b1 e0       	ldi	r27, 0x01	; 1
 5d4:	08 95       	ret
 5d6:	9c c0       	rjmp	.+312    	; 0x710 <__fp_zero>
 5d8:	67 2f       	mov	r22, r23
 5da:	78 2f       	mov	r23, r24
 5dc:	88 27       	eor	r24, r24
 5de:	b8 5f       	subi	r27, 0xF8	; 248
 5e0:	39 f0       	breq	.+14     	; 0x5f0 <__fixunssfsi+0x46>
 5e2:	b9 3f       	cpi	r27, 0xF9	; 249
 5e4:	cc f3       	brlt	.-14     	; 0x5d8 <__fixunssfsi+0x2e>
 5e6:	86 95       	lsr	r24
 5e8:	77 95       	ror	r23
 5ea:	67 95       	ror	r22
 5ec:	b3 95       	inc	r27
 5ee:	d9 f7       	brne	.-10     	; 0x5e6 <__fixunssfsi+0x3c>
 5f0:	3e f4       	brtc	.+14     	; 0x600 <__fixunssfsi+0x56>
 5f2:	90 95       	com	r25
 5f4:	80 95       	com	r24
 5f6:	70 95       	com	r23
 5f8:	61 95       	neg	r22
 5fa:	7f 4f       	sbci	r23, 0xFF	; 255
 5fc:	8f 4f       	sbci	r24, 0xFF	; 255
 5fe:	9f 4f       	sbci	r25, 0xFF	; 255
 600:	08 95       	ret

00000602 <__floatunsisf>:
 602:	e8 94       	clt
 604:	09 c0       	rjmp	.+18     	; 0x618 <__floatsisf+0x12>

00000606 <__floatsisf>:
 606:	97 fb       	bst	r25, 7
 608:	3e f4       	brtc	.+14     	; 0x618 <__floatsisf+0x12>
 60a:	90 95       	com	r25
 60c:	80 95       	com	r24
 60e:	70 95       	com	r23
 610:	61 95       	neg	r22
 612:	7f 4f       	sbci	r23, 0xFF	; 255
 614:	8f 4f       	sbci	r24, 0xFF	; 255
 616:	9f 4f       	sbci	r25, 0xFF	; 255
 618:	99 23       	and	r25, r25
 61a:	a9 f0       	breq	.+42     	; 0x646 <__floatsisf+0x40>
 61c:	f9 2f       	mov	r31, r25
 61e:	96 e9       	ldi	r25, 0x96	; 150
 620:	bb 27       	eor	r27, r27
 622:	93 95       	inc	r25
 624:	f6 95       	lsr	r31
 626:	87 95       	ror	r24
 628:	77 95       	ror	r23
 62a:	67 95       	ror	r22
 62c:	b7 95       	ror	r27
 62e:	f1 11       	cpse	r31, r1
 630:	f8 cf       	rjmp	.-16     	; 0x622 <__floatsisf+0x1c>
 632:	fa f4       	brpl	.+62     	; 0x672 <__floatsisf+0x6c>
 634:	bb 0f       	add	r27, r27
 636:	11 f4       	brne	.+4      	; 0x63c <__floatsisf+0x36>
 638:	60 ff       	sbrs	r22, 0
 63a:	1b c0       	rjmp	.+54     	; 0x672 <__floatsisf+0x6c>
 63c:	6f 5f       	subi	r22, 0xFF	; 255
 63e:	7f 4f       	sbci	r23, 0xFF	; 255
 640:	8f 4f       	sbci	r24, 0xFF	; 255
 642:	9f 4f       	sbci	r25, 0xFF	; 255
 644:	16 c0       	rjmp	.+44     	; 0x672 <__floatsisf+0x6c>
 646:	88 23       	and	r24, r24
 648:	11 f0       	breq	.+4      	; 0x64e <__floatsisf+0x48>
 64a:	96 e9       	ldi	r25, 0x96	; 150
 64c:	11 c0       	rjmp	.+34     	; 0x670 <__floatsisf+0x6a>
 64e:	77 23       	and	r23, r23
 650:	21 f0       	breq	.+8      	; 0x65a <__floatsisf+0x54>
 652:	9e e8       	ldi	r25, 0x8E	; 142
 654:	87 2f       	mov	r24, r23
 656:	76 2f       	mov	r23, r22
 658:	05 c0       	rjmp	.+10     	; 0x664 <__floatsisf+0x5e>
 65a:	66 23       	and	r22, r22
 65c:	71 f0       	breq	.+28     	; 0x67a <__floatsisf+0x74>
 65e:	96 e8       	ldi	r25, 0x86	; 134
 660:	86 2f       	mov	r24, r22
 662:	70 e0       	ldi	r23, 0x00	; 0
 664:	60 e0       	ldi	r22, 0x00	; 0
 666:	2a f0       	brmi	.+10     	; 0x672 <__floatsisf+0x6c>
 668:	9a 95       	dec	r25
 66a:	66 0f       	add	r22, r22
 66c:	77 1f       	adc	r23, r23
 66e:	88 1f       	adc	r24, r24
 670:	da f7       	brpl	.-10     	; 0x668 <__floatsisf+0x62>
 672:	88 0f       	add	r24, r24
 674:	96 95       	lsr	r25
 676:	87 95       	ror	r24
 678:	97 f9       	bld	r25, 7
 67a:	08 95       	ret

0000067c <__fp_inf>:
 67c:	97 f9       	bld	r25, 7
 67e:	9f 67       	ori	r25, 0x7F	; 127
 680:	80 e8       	ldi	r24, 0x80	; 128
 682:	70 e0       	ldi	r23, 0x00	; 0
 684:	60 e0       	ldi	r22, 0x00	; 0
 686:	08 95       	ret

00000688 <__fp_nan>:
 688:	9f ef       	ldi	r25, 0xFF	; 255
 68a:	80 ec       	ldi	r24, 0xC0	; 192
 68c:	08 95       	ret

0000068e <__fp_pscA>:
 68e:	00 24       	eor	r0, r0
 690:	0a 94       	dec	r0
 692:	16 16       	cp	r1, r22
 694:	17 06       	cpc	r1, r23
 696:	18 06       	cpc	r1, r24
 698:	09 06       	cpc	r0, r25
 69a:	08 95       	ret

0000069c <__fp_pscB>:
 69c:	00 24       	eor	r0, r0
 69e:	0a 94       	dec	r0
 6a0:	12 16       	cp	r1, r18
 6a2:	13 06       	cpc	r1, r19
 6a4:	14 06       	cpc	r1, r20
 6a6:	05 06       	cpc	r0, r21
 6a8:	08 95       	ret

000006aa <__fp_round>:
 6aa:	09 2e       	mov	r0, r25
 6ac:	03 94       	inc	r0
 6ae:	00 0c       	add	r0, r0
 6b0:	11 f4       	brne	.+4      	; 0x6b6 <__fp_round+0xc>
 6b2:	88 23       	and	r24, r24
 6b4:	52 f0       	brmi	.+20     	; 0x6ca <__fp_round+0x20>
 6b6:	bb 0f       	add	r27, r27
 6b8:	40 f4       	brcc	.+16     	; 0x6ca <__fp_round+0x20>
 6ba:	bf 2b       	or	r27, r31
 6bc:	11 f4       	brne	.+4      	; 0x6c2 <__fp_round+0x18>
 6be:	60 ff       	sbrs	r22, 0
 6c0:	04 c0       	rjmp	.+8      	; 0x6ca <__fp_round+0x20>
 6c2:	6f 5f       	subi	r22, 0xFF	; 255
 6c4:	7f 4f       	sbci	r23, 0xFF	; 255
 6c6:	8f 4f       	sbci	r24, 0xFF	; 255
 6c8:	9f 4f       	sbci	r25, 0xFF	; 255
 6ca:	08 95       	ret

000006cc <__fp_split3>:
 6cc:	57 fd       	sbrc	r21, 7
 6ce:	90 58       	subi	r25, 0x80	; 128
 6d0:	44 0f       	add	r20, r20
 6d2:	55 1f       	adc	r21, r21
 6d4:	59 f0       	breq	.+22     	; 0x6ec <__fp_splitA+0x10>
 6d6:	5f 3f       	cpi	r21, 0xFF	; 255
 6d8:	71 f0       	breq	.+28     	; 0x6f6 <__fp_splitA+0x1a>
 6da:	47 95       	ror	r20

000006dc <__fp_splitA>:
 6dc:	88 0f       	add	r24, r24
 6de:	97 fb       	bst	r25, 7
 6e0:	99 1f       	adc	r25, r25
 6e2:	61 f0       	breq	.+24     	; 0x6fc <__fp_splitA+0x20>
 6e4:	9f 3f       	cpi	r25, 0xFF	; 255
 6e6:	79 f0       	breq	.+30     	; 0x706 <__fp_splitA+0x2a>
 6e8:	87 95       	ror	r24
 6ea:	08 95       	ret
 6ec:	12 16       	cp	r1, r18
 6ee:	13 06       	cpc	r1, r19
 6f0:	14 06       	cpc	r1, r20
 6f2:	55 1f       	adc	r21, r21
 6f4:	f2 cf       	rjmp	.-28     	; 0x6da <__fp_split3+0xe>
 6f6:	46 95       	lsr	r20
 6f8:	f1 df       	rcall	.-30     	; 0x6dc <__fp_splitA>
 6fa:	08 c0       	rjmp	.+16     	; 0x70c <__fp_splitA+0x30>
 6fc:	16 16       	cp	r1, r22
 6fe:	17 06       	cpc	r1, r23
 700:	18 06       	cpc	r1, r24
 702:	99 1f       	adc	r25, r25
 704:	f1 cf       	rjmp	.-30     	; 0x6e8 <__fp_splitA+0xc>
 706:	86 95       	lsr	r24
 708:	71 05       	cpc	r23, r1
 70a:	61 05       	cpc	r22, r1
 70c:	08 94       	sec
 70e:	08 95       	ret

00000710 <__fp_zero>:
 710:	e8 94       	clt

00000712 <__fp_szero>:
 712:	bb 27       	eor	r27, r27
 714:	66 27       	eor	r22, r22
 716:	77 27       	eor	r23, r23
 718:	cb 01       	movw	r24, r22
 71a:	97 f9       	bld	r25, 7
 71c:	08 95       	ret

0000071e <__gesf2>:
 71e:	66 d0       	rcall	.+204    	; 0x7ec <__fp_cmp>
 720:	08 f4       	brcc	.+2      	; 0x724 <__gesf2+0x6>
 722:	8f ef       	ldi	r24, 0xFF	; 255
 724:	08 95       	ret

00000726 <__mulsf3>:
 726:	0b d0       	rcall	.+22     	; 0x73e <__mulsf3x>
 728:	c0 cf       	rjmp	.-128    	; 0x6aa <__fp_round>
 72a:	b1 df       	rcall	.-158    	; 0x68e <__fp_pscA>
 72c:	28 f0       	brcs	.+10     	; 0x738 <__mulsf3+0x12>
 72e:	b6 df       	rcall	.-148    	; 0x69c <__fp_pscB>
 730:	18 f0       	brcs	.+6      	; 0x738 <__mulsf3+0x12>
 732:	95 23       	and	r25, r21
 734:	09 f0       	breq	.+2      	; 0x738 <__mulsf3+0x12>
 736:	a2 cf       	rjmp	.-188    	; 0x67c <__fp_inf>
 738:	a7 cf       	rjmp	.-178    	; 0x688 <__fp_nan>
 73a:	11 24       	eor	r1, r1
 73c:	ea cf       	rjmp	.-44     	; 0x712 <__fp_szero>

0000073e <__mulsf3x>:
 73e:	c6 df       	rcall	.-116    	; 0x6cc <__fp_split3>
 740:	a0 f3       	brcs	.-24     	; 0x72a <__mulsf3+0x4>

00000742 <__mulsf3_pse>:
 742:	95 9f       	mul	r25, r21
 744:	d1 f3       	breq	.-12     	; 0x73a <__mulsf3+0x14>
 746:	95 0f       	add	r25, r21
 748:	50 e0       	ldi	r21, 0x00	; 0
 74a:	55 1f       	adc	r21, r21
 74c:	62 9f       	mul	r22, r18
 74e:	f0 01       	movw	r30, r0
 750:	72 9f       	mul	r23, r18
 752:	bb 27       	eor	r27, r27
 754:	f0 0d       	add	r31, r0
 756:	b1 1d       	adc	r27, r1
 758:	63 9f       	mul	r22, r19
 75a:	aa 27       	eor	r26, r26
 75c:	f0 0d       	add	r31, r0
 75e:	b1 1d       	adc	r27, r1
 760:	aa 1f       	adc	r26, r26
 762:	64 9f       	mul	r22, r20
 764:	66 27       	eor	r22, r22
 766:	b0 0d       	add	r27, r0
 768:	a1 1d       	adc	r26, r1
 76a:	66 1f       	adc	r22, r22
 76c:	82 9f       	mul	r24, r18
 76e:	22 27       	eor	r18, r18
 770:	b0 0d       	add	r27, r0
 772:	a1 1d       	adc	r26, r1
 774:	62 1f       	adc	r22, r18
 776:	73 9f       	mul	r23, r19
 778:	b0 0d       	add	r27, r0
 77a:	a1 1d       	adc	r26, r1
 77c:	62 1f       	adc	r22, r18
 77e:	83 9f       	mul	r24, r19
 780:	a0 0d       	add	r26, r0
 782:	61 1d       	adc	r22, r1
 784:	22 1f       	adc	r18, r18
 786:	74 9f       	mul	r23, r20
 788:	33 27       	eor	r19, r19
 78a:	a0 0d       	add	r26, r0
 78c:	61 1d       	adc	r22, r1
 78e:	23 1f       	adc	r18, r19
 790:	84 9f       	mul	r24, r20
 792:	60 0d       	add	r22, r0
 794:	21 1d       	adc	r18, r1
 796:	82 2f       	mov	r24, r18
 798:	76 2f       	mov	r23, r22
 79a:	6a 2f       	mov	r22, r26
 79c:	11 24       	eor	r1, r1
 79e:	9f 57       	subi	r25, 0x7F	; 127
 7a0:	50 40       	sbci	r21, 0x00	; 0
 7a2:	8a f0       	brmi	.+34     	; 0x7c6 <__mulsf3_pse+0x84>
 7a4:	e1 f0       	breq	.+56     	; 0x7de <__mulsf3_pse+0x9c>
 7a6:	88 23       	and	r24, r24
 7a8:	4a f0       	brmi	.+18     	; 0x7bc <__mulsf3_pse+0x7a>
 7aa:	ee 0f       	add	r30, r30
 7ac:	ff 1f       	adc	r31, r31
 7ae:	bb 1f       	adc	r27, r27
 7b0:	66 1f       	adc	r22, r22
 7b2:	77 1f       	adc	r23, r23
 7b4:	88 1f       	adc	r24, r24
 7b6:	91 50       	subi	r25, 0x01	; 1
 7b8:	50 40       	sbci	r21, 0x00	; 0
 7ba:	a9 f7       	brne	.-22     	; 0x7a6 <__mulsf3_pse+0x64>
 7bc:	9e 3f       	cpi	r25, 0xFE	; 254
 7be:	51 05       	cpc	r21, r1
 7c0:	70 f0       	brcs	.+28     	; 0x7de <__mulsf3_pse+0x9c>
 7c2:	5c cf       	rjmp	.-328    	; 0x67c <__fp_inf>
 7c4:	a6 cf       	rjmp	.-180    	; 0x712 <__fp_szero>
 7c6:	5f 3f       	cpi	r21, 0xFF	; 255
 7c8:	ec f3       	brlt	.-6      	; 0x7c4 <__mulsf3_pse+0x82>
 7ca:	98 3e       	cpi	r25, 0xE8	; 232
 7cc:	dc f3       	brlt	.-10     	; 0x7c4 <__mulsf3_pse+0x82>
 7ce:	86 95       	lsr	r24
 7d0:	77 95       	ror	r23
 7d2:	67 95       	ror	r22
 7d4:	b7 95       	ror	r27
 7d6:	f7 95       	ror	r31
 7d8:	e7 95       	ror	r30
 7da:	9f 5f       	subi	r25, 0xFF	; 255
 7dc:	c1 f7       	brne	.-16     	; 0x7ce <__mulsf3_pse+0x8c>
 7de:	fe 2b       	or	r31, r30
 7e0:	88 0f       	add	r24, r24
 7e2:	91 1d       	adc	r25, r1
 7e4:	96 95       	lsr	r25
 7e6:	87 95       	ror	r24
 7e8:	97 f9       	bld	r25, 7
 7ea:	08 95       	ret

000007ec <__fp_cmp>:
 7ec:	99 0f       	add	r25, r25
 7ee:	00 08       	sbc	r0, r0
 7f0:	55 0f       	add	r21, r21
 7f2:	aa 0b       	sbc	r26, r26
 7f4:	e0 e8       	ldi	r30, 0x80	; 128
 7f6:	fe ef       	ldi	r31, 0xFE	; 254
 7f8:	16 16       	cp	r1, r22
 7fa:	17 06       	cpc	r1, r23
 7fc:	e8 07       	cpc	r30, r24
 7fe:	f9 07       	cpc	r31, r25
 800:	c0 f0       	brcs	.+48     	; 0x832 <__fp_cmp+0x46>
 802:	12 16       	cp	r1, r18
 804:	13 06       	cpc	r1, r19
 806:	e4 07       	cpc	r30, r20
 808:	f5 07       	cpc	r31, r21
 80a:	98 f0       	brcs	.+38     	; 0x832 <__fp_cmp+0x46>
 80c:	62 1b       	sub	r22, r18
 80e:	73 0b       	sbc	r23, r19
 810:	84 0b       	sbc	r24, r20
 812:	95 0b       	sbc	r25, r21
 814:	39 f4       	brne	.+14     	; 0x824 <__fp_cmp+0x38>
 816:	0a 26       	eor	r0, r26
 818:	61 f0       	breq	.+24     	; 0x832 <__fp_cmp+0x46>
 81a:	23 2b       	or	r18, r19
 81c:	24 2b       	or	r18, r20
 81e:	25 2b       	or	r18, r21
 820:	21 f4       	brne	.+8      	; 0x82a <__fp_cmp+0x3e>
 822:	08 95       	ret
 824:	0a 26       	eor	r0, r26
 826:	09 f4       	brne	.+2      	; 0x82a <__fp_cmp+0x3e>
 828:	a1 40       	sbci	r26, 0x01	; 1
 82a:	a6 95       	lsr	r26
 82c:	8f ef       	ldi	r24, 0xFF	; 255
 82e:	81 1d       	adc	r24, r1
 830:	81 1d       	adc	r24, r1
 832:	08 95       	ret

00000834 <__umulhisi3>:
 834:	a2 9f       	mul	r26, r18
 836:	b0 01       	movw	r22, r0
 838:	b3 9f       	mul	r27, r19
 83a:	c0 01       	movw	r24, r0
 83c:	a3 9f       	mul	r26, r19
 83e:	70 0d       	add	r23, r0
 840:	81 1d       	adc	r24, r1
 842:	11 24       	eor	r1, r1
 844:	91 1d       	adc	r25, r1
 846:	b2 9f       	mul	r27, r18
 848:	70 0d       	add	r23, r0
 84a:	81 1d       	adc	r24, r1
 84c:	11 24       	eor	r1, r1
 84e:	91 1d       	adc	r25, r1
 850:	08 95       	ret

00000852 <sprintf>:
 852:	0f 93       	push	r16
 854:	1f 93       	push	r17
 856:	cf 93       	push	r28
 858:	df 93       	push	r29
 85a:	cd b7       	in	r28, 0x3d	; 61
 85c:	de b7       	in	r29, 0x3e	; 62
 85e:	2e 97       	sbiw	r28, 0x0e	; 14
 860:	0f b6       	in	r0, 0x3f	; 63
 862:	f8 94       	cli
 864:	de bf       	out	0x3e, r29	; 62
 866:	0f be       	out	0x3f, r0	; 63
 868:	cd bf       	out	0x3d, r28	; 61
 86a:	0e 89       	ldd	r16, Y+22	; 0x16
 86c:	1f 89       	ldd	r17, Y+23	; 0x17
 86e:	86 e0       	ldi	r24, 0x06	; 6
 870:	8c 83       	std	Y+4, r24	; 0x04
 872:	1a 83       	std	Y+2, r17	; 0x02
 874:	09 83       	std	Y+1, r16	; 0x01
 876:	8f ef       	ldi	r24, 0xFF	; 255
 878:	9f e7       	ldi	r25, 0x7F	; 127
 87a:	9e 83       	std	Y+6, r25	; 0x06
 87c:	8d 83       	std	Y+5, r24	; 0x05
 87e:	ae 01       	movw	r20, r28
 880:	46 5e       	subi	r20, 0xE6	; 230
 882:	5f 4f       	sbci	r21, 0xFF	; 255
 884:	68 8d       	ldd	r22, Y+24	; 0x18
 886:	79 8d       	ldd	r23, Y+25	; 0x19
 888:	ce 01       	movw	r24, r28
 88a:	01 96       	adiw	r24, 0x01	; 1
 88c:	11 d0       	rcall	.+34     	; 0x8b0 <vfprintf>
 88e:	2f 81       	ldd	r18, Y+7	; 0x07
 890:	38 85       	ldd	r19, Y+8	; 0x08
 892:	f8 01       	movw	r30, r16
 894:	e2 0f       	add	r30, r18
 896:	f3 1f       	adc	r31, r19
 898:	10 82       	st	Z, r1
 89a:	2e 96       	adiw	r28, 0x0e	; 14
 89c:	0f b6       	in	r0, 0x3f	; 63
 89e:	f8 94       	cli
 8a0:	de bf       	out	0x3e, r29	; 62
 8a2:	0f be       	out	0x3f, r0	; 63
 8a4:	cd bf       	out	0x3d, r28	; 61
 8a6:	df 91       	pop	r29
 8a8:	cf 91       	pop	r28
 8aa:	1f 91       	pop	r17
 8ac:	0f 91       	pop	r16
 8ae:	08 95       	ret

000008b0 <vfprintf>:
 8b0:	2f 92       	push	r2
 8b2:	3f 92       	push	r3
 8b4:	4f 92       	push	r4
 8b6:	5f 92       	push	r5
 8b8:	6f 92       	push	r6
 8ba:	7f 92       	push	r7
 8bc:	8f 92       	push	r8
 8be:	9f 92       	push	r9
 8c0:	af 92       	push	r10
 8c2:	bf 92       	push	r11
 8c4:	cf 92       	push	r12
 8c6:	df 92       	push	r13
 8c8:	ef 92       	push	r14
 8ca:	ff 92       	push	r15
 8cc:	0f 93       	push	r16
 8ce:	1f 93       	push	r17
 8d0:	cf 93       	push	r28
 8d2:	df 93       	push	r29
 8d4:	cd b7       	in	r28, 0x3d	; 61
 8d6:	de b7       	in	r29, 0x3e	; 62
 8d8:	2c 97       	sbiw	r28, 0x0c	; 12
 8da:	0f b6       	in	r0, 0x3f	; 63
 8dc:	f8 94       	cli
 8de:	de bf       	out	0x3e, r29	; 62
 8e0:	0f be       	out	0x3f, r0	; 63
 8e2:	cd bf       	out	0x3d, r28	; 61
 8e4:	7c 01       	movw	r14, r24
 8e6:	6b 01       	movw	r12, r22
 8e8:	8a 01       	movw	r16, r20
 8ea:	fc 01       	movw	r30, r24
 8ec:	17 82       	std	Z+7, r1	; 0x07
 8ee:	16 82       	std	Z+6, r1	; 0x06
 8f0:	83 81       	ldd	r24, Z+3	; 0x03
 8f2:	81 ff       	sbrs	r24, 1
 8f4:	b0 c1       	rjmp	.+864    	; 0xc56 <vfprintf+0x3a6>
 8f6:	ce 01       	movw	r24, r28
 8f8:	01 96       	adiw	r24, 0x01	; 1
 8fa:	4c 01       	movw	r8, r24
 8fc:	f7 01       	movw	r30, r14
 8fe:	93 81       	ldd	r25, Z+3	; 0x03
 900:	f6 01       	movw	r30, r12
 902:	93 fd       	sbrc	r25, 3
 904:	85 91       	lpm	r24, Z+
 906:	93 ff       	sbrs	r25, 3
 908:	81 91       	ld	r24, Z+
 90a:	6f 01       	movw	r12, r30
 90c:	88 23       	and	r24, r24
 90e:	09 f4       	brne	.+2      	; 0x912 <vfprintf+0x62>
 910:	9e c1       	rjmp	.+828    	; 0xc4e <vfprintf+0x39e>
 912:	85 32       	cpi	r24, 0x25	; 37
 914:	39 f4       	brne	.+14     	; 0x924 <vfprintf+0x74>
 916:	93 fd       	sbrc	r25, 3
 918:	85 91       	lpm	r24, Z+
 91a:	93 ff       	sbrs	r25, 3
 91c:	81 91       	ld	r24, Z+
 91e:	6f 01       	movw	r12, r30
 920:	85 32       	cpi	r24, 0x25	; 37
 922:	21 f4       	brne	.+8      	; 0x92c <vfprintf+0x7c>
 924:	b7 01       	movw	r22, r14
 926:	90 e0       	ldi	r25, 0x00	; 0
 928:	c7 d1       	rcall	.+910    	; 0xcb8 <fputc>
 92a:	e8 cf       	rjmp	.-48     	; 0x8fc <vfprintf+0x4c>
 92c:	51 2c       	mov	r5, r1
 92e:	31 2c       	mov	r3, r1
 930:	20 e0       	ldi	r18, 0x00	; 0
 932:	20 32       	cpi	r18, 0x20	; 32
 934:	a0 f4       	brcc	.+40     	; 0x95e <vfprintf+0xae>
 936:	8b 32       	cpi	r24, 0x2B	; 43
 938:	69 f0       	breq	.+26     	; 0x954 <vfprintf+0xa4>
 93a:	30 f4       	brcc	.+12     	; 0x948 <vfprintf+0x98>
 93c:	80 32       	cpi	r24, 0x20	; 32
 93e:	59 f0       	breq	.+22     	; 0x956 <vfprintf+0xa6>
 940:	83 32       	cpi	r24, 0x23	; 35
 942:	69 f4       	brne	.+26     	; 0x95e <vfprintf+0xae>
 944:	20 61       	ori	r18, 0x10	; 16
 946:	2c c0       	rjmp	.+88     	; 0x9a0 <vfprintf+0xf0>
 948:	8d 32       	cpi	r24, 0x2D	; 45
 94a:	39 f0       	breq	.+14     	; 0x95a <vfprintf+0xaa>
 94c:	80 33       	cpi	r24, 0x30	; 48
 94e:	39 f4       	brne	.+14     	; 0x95e <vfprintf+0xae>
 950:	21 60       	ori	r18, 0x01	; 1
 952:	26 c0       	rjmp	.+76     	; 0x9a0 <vfprintf+0xf0>
 954:	22 60       	ori	r18, 0x02	; 2
 956:	24 60       	ori	r18, 0x04	; 4
 958:	23 c0       	rjmp	.+70     	; 0x9a0 <vfprintf+0xf0>
 95a:	28 60       	ori	r18, 0x08	; 8
 95c:	21 c0       	rjmp	.+66     	; 0x9a0 <vfprintf+0xf0>
 95e:	27 fd       	sbrc	r18, 7
 960:	27 c0       	rjmp	.+78     	; 0x9b0 <vfprintf+0x100>
 962:	30 ed       	ldi	r19, 0xD0	; 208
 964:	38 0f       	add	r19, r24
 966:	3a 30       	cpi	r19, 0x0A	; 10
 968:	78 f4       	brcc	.+30     	; 0x988 <vfprintf+0xd8>
 96a:	26 ff       	sbrs	r18, 6
 96c:	06 c0       	rjmp	.+12     	; 0x97a <vfprintf+0xca>
 96e:	fa e0       	ldi	r31, 0x0A	; 10
 970:	5f 9e       	mul	r5, r31
 972:	30 0d       	add	r19, r0
 974:	11 24       	eor	r1, r1
 976:	53 2e       	mov	r5, r19
 978:	13 c0       	rjmp	.+38     	; 0x9a0 <vfprintf+0xf0>
 97a:	8a e0       	ldi	r24, 0x0A	; 10
 97c:	38 9e       	mul	r3, r24
 97e:	30 0d       	add	r19, r0
 980:	11 24       	eor	r1, r1
 982:	33 2e       	mov	r3, r19
 984:	20 62       	ori	r18, 0x20	; 32
 986:	0c c0       	rjmp	.+24     	; 0x9a0 <vfprintf+0xf0>
 988:	8e 32       	cpi	r24, 0x2E	; 46
 98a:	21 f4       	brne	.+8      	; 0x994 <vfprintf+0xe4>
 98c:	26 fd       	sbrc	r18, 6
 98e:	5f c1       	rjmp	.+702    	; 0xc4e <vfprintf+0x39e>
 990:	20 64       	ori	r18, 0x40	; 64
 992:	06 c0       	rjmp	.+12     	; 0x9a0 <vfprintf+0xf0>
 994:	8c 36       	cpi	r24, 0x6C	; 108
 996:	11 f4       	brne	.+4      	; 0x99c <vfprintf+0xec>
 998:	20 68       	ori	r18, 0x80	; 128
 99a:	02 c0       	rjmp	.+4      	; 0x9a0 <vfprintf+0xf0>
 99c:	88 36       	cpi	r24, 0x68	; 104
 99e:	41 f4       	brne	.+16     	; 0x9b0 <vfprintf+0x100>
 9a0:	f6 01       	movw	r30, r12
 9a2:	93 fd       	sbrc	r25, 3
 9a4:	85 91       	lpm	r24, Z+
 9a6:	93 ff       	sbrs	r25, 3
 9a8:	81 91       	ld	r24, Z+
 9aa:	6f 01       	movw	r12, r30
 9ac:	81 11       	cpse	r24, r1
 9ae:	c1 cf       	rjmp	.-126    	; 0x932 <vfprintf+0x82>
 9b0:	98 2f       	mov	r25, r24
 9b2:	9f 7d       	andi	r25, 0xDF	; 223
 9b4:	95 54       	subi	r25, 0x45	; 69
 9b6:	93 30       	cpi	r25, 0x03	; 3
 9b8:	28 f4       	brcc	.+10     	; 0x9c4 <vfprintf+0x114>
 9ba:	0c 5f       	subi	r16, 0xFC	; 252
 9bc:	1f 4f       	sbci	r17, 0xFF	; 255
 9be:	ff e3       	ldi	r31, 0x3F	; 63
 9c0:	f9 83       	std	Y+1, r31	; 0x01
 9c2:	0d c0       	rjmp	.+26     	; 0x9de <vfprintf+0x12e>
 9c4:	83 36       	cpi	r24, 0x63	; 99
 9c6:	31 f0       	breq	.+12     	; 0x9d4 <vfprintf+0x124>
 9c8:	83 37       	cpi	r24, 0x73	; 115
 9ca:	71 f0       	breq	.+28     	; 0x9e8 <vfprintf+0x138>
 9cc:	83 35       	cpi	r24, 0x53	; 83
 9ce:	09 f0       	breq	.+2      	; 0x9d2 <vfprintf+0x122>
 9d0:	57 c0       	rjmp	.+174    	; 0xa80 <vfprintf+0x1d0>
 9d2:	21 c0       	rjmp	.+66     	; 0xa16 <vfprintf+0x166>
 9d4:	f8 01       	movw	r30, r16
 9d6:	80 81       	ld	r24, Z
 9d8:	89 83       	std	Y+1, r24	; 0x01
 9da:	0e 5f       	subi	r16, 0xFE	; 254
 9dc:	1f 4f       	sbci	r17, 0xFF	; 255
 9de:	44 24       	eor	r4, r4
 9e0:	43 94       	inc	r4
 9e2:	51 2c       	mov	r5, r1
 9e4:	54 01       	movw	r10, r8
 9e6:	14 c0       	rjmp	.+40     	; 0xa10 <vfprintf+0x160>
 9e8:	38 01       	movw	r6, r16
 9ea:	f2 e0       	ldi	r31, 0x02	; 2
 9ec:	6f 0e       	add	r6, r31
 9ee:	71 1c       	adc	r7, r1
 9f0:	f8 01       	movw	r30, r16
 9f2:	a0 80       	ld	r10, Z
 9f4:	b1 80       	ldd	r11, Z+1	; 0x01
 9f6:	26 ff       	sbrs	r18, 6
 9f8:	03 c0       	rjmp	.+6      	; 0xa00 <vfprintf+0x150>
 9fa:	65 2d       	mov	r22, r5
 9fc:	70 e0       	ldi	r23, 0x00	; 0
 9fe:	02 c0       	rjmp	.+4      	; 0xa04 <vfprintf+0x154>
 a00:	6f ef       	ldi	r22, 0xFF	; 255
 a02:	7f ef       	ldi	r23, 0xFF	; 255
 a04:	c5 01       	movw	r24, r10
 a06:	2c 87       	std	Y+12, r18	; 0x0c
 a08:	4c d1       	rcall	.+664    	; 0xca2 <strnlen>
 a0a:	2c 01       	movw	r4, r24
 a0c:	83 01       	movw	r16, r6
 a0e:	2c 85       	ldd	r18, Y+12	; 0x0c
 a10:	2f 77       	andi	r18, 0x7F	; 127
 a12:	22 2e       	mov	r2, r18
 a14:	16 c0       	rjmp	.+44     	; 0xa42 <vfprintf+0x192>
 a16:	38 01       	movw	r6, r16
 a18:	f2 e0       	ldi	r31, 0x02	; 2
 a1a:	6f 0e       	add	r6, r31
 a1c:	71 1c       	adc	r7, r1
 a1e:	f8 01       	movw	r30, r16
 a20:	a0 80       	ld	r10, Z
 a22:	b1 80       	ldd	r11, Z+1	; 0x01
 a24:	26 ff       	sbrs	r18, 6
 a26:	03 c0       	rjmp	.+6      	; 0xa2e <vfprintf+0x17e>
 a28:	65 2d       	mov	r22, r5
 a2a:	70 e0       	ldi	r23, 0x00	; 0
 a2c:	02 c0       	rjmp	.+4      	; 0xa32 <vfprintf+0x182>
 a2e:	6f ef       	ldi	r22, 0xFF	; 255
 a30:	7f ef       	ldi	r23, 0xFF	; 255
 a32:	c5 01       	movw	r24, r10
 a34:	2c 87       	std	Y+12, r18	; 0x0c
 a36:	2a d1       	rcall	.+596    	; 0xc8c <strnlen_P>
 a38:	2c 01       	movw	r4, r24
 a3a:	2c 85       	ldd	r18, Y+12	; 0x0c
 a3c:	20 68       	ori	r18, 0x80	; 128
 a3e:	22 2e       	mov	r2, r18
 a40:	83 01       	movw	r16, r6
 a42:	23 fc       	sbrc	r2, 3
 a44:	19 c0       	rjmp	.+50     	; 0xa78 <vfprintf+0x1c8>
 a46:	83 2d       	mov	r24, r3
 a48:	90 e0       	ldi	r25, 0x00	; 0
 a4a:	48 16       	cp	r4, r24
 a4c:	59 06       	cpc	r5, r25
 a4e:	a0 f4       	brcc	.+40     	; 0xa78 <vfprintf+0x1c8>
 a50:	b7 01       	movw	r22, r14
 a52:	80 e2       	ldi	r24, 0x20	; 32
 a54:	90 e0       	ldi	r25, 0x00	; 0
 a56:	30 d1       	rcall	.+608    	; 0xcb8 <fputc>
 a58:	3a 94       	dec	r3
 a5a:	f5 cf       	rjmp	.-22     	; 0xa46 <vfprintf+0x196>
 a5c:	f5 01       	movw	r30, r10
 a5e:	27 fc       	sbrc	r2, 7
 a60:	85 91       	lpm	r24, Z+
 a62:	27 fe       	sbrs	r2, 7
 a64:	81 91       	ld	r24, Z+
 a66:	5f 01       	movw	r10, r30
 a68:	b7 01       	movw	r22, r14
 a6a:	90 e0       	ldi	r25, 0x00	; 0
 a6c:	25 d1       	rcall	.+586    	; 0xcb8 <fputc>
 a6e:	31 10       	cpse	r3, r1
 a70:	3a 94       	dec	r3
 a72:	f1 e0       	ldi	r31, 0x01	; 1
 a74:	4f 1a       	sub	r4, r31
 a76:	51 08       	sbc	r5, r1
 a78:	41 14       	cp	r4, r1
 a7a:	51 04       	cpc	r5, r1
 a7c:	79 f7       	brne	.-34     	; 0xa5c <vfprintf+0x1ac>
 a7e:	de c0       	rjmp	.+444    	; 0xc3c <vfprintf+0x38c>
 a80:	84 36       	cpi	r24, 0x64	; 100
 a82:	11 f0       	breq	.+4      	; 0xa88 <vfprintf+0x1d8>
 a84:	89 36       	cpi	r24, 0x69	; 105
 a86:	31 f5       	brne	.+76     	; 0xad4 <vfprintf+0x224>
 a88:	f8 01       	movw	r30, r16
 a8a:	27 ff       	sbrs	r18, 7
 a8c:	07 c0       	rjmp	.+14     	; 0xa9c <vfprintf+0x1ec>
 a8e:	60 81       	ld	r22, Z
 a90:	71 81       	ldd	r23, Z+1	; 0x01
 a92:	82 81       	ldd	r24, Z+2	; 0x02
 a94:	93 81       	ldd	r25, Z+3	; 0x03
 a96:	0c 5f       	subi	r16, 0xFC	; 252
 a98:	1f 4f       	sbci	r17, 0xFF	; 255
 a9a:	08 c0       	rjmp	.+16     	; 0xaac <vfprintf+0x1fc>
 a9c:	60 81       	ld	r22, Z
 a9e:	71 81       	ldd	r23, Z+1	; 0x01
 aa0:	07 2e       	mov	r0, r23
 aa2:	00 0c       	add	r0, r0
 aa4:	88 0b       	sbc	r24, r24
 aa6:	99 0b       	sbc	r25, r25
 aa8:	0e 5f       	subi	r16, 0xFE	; 254
 aaa:	1f 4f       	sbci	r17, 0xFF	; 255
 aac:	2f 76       	andi	r18, 0x6F	; 111
 aae:	72 2e       	mov	r7, r18
 ab0:	97 ff       	sbrs	r25, 7
 ab2:	09 c0       	rjmp	.+18     	; 0xac6 <vfprintf+0x216>
 ab4:	90 95       	com	r25
 ab6:	80 95       	com	r24
 ab8:	70 95       	com	r23
 aba:	61 95       	neg	r22
 abc:	7f 4f       	sbci	r23, 0xFF	; 255
 abe:	8f 4f       	sbci	r24, 0xFF	; 255
 ac0:	9f 4f       	sbci	r25, 0xFF	; 255
 ac2:	20 68       	ori	r18, 0x80	; 128
 ac4:	72 2e       	mov	r7, r18
 ac6:	2a e0       	ldi	r18, 0x0A	; 10
 ac8:	30 e0       	ldi	r19, 0x00	; 0
 aca:	a4 01       	movw	r20, r8
 acc:	2d d1       	rcall	.+602    	; 0xd28 <__ultoa_invert>
 ace:	a8 2e       	mov	r10, r24
 ad0:	a8 18       	sub	r10, r8
 ad2:	43 c0       	rjmp	.+134    	; 0xb5a <vfprintf+0x2aa>
 ad4:	85 37       	cpi	r24, 0x75	; 117
 ad6:	29 f4       	brne	.+10     	; 0xae2 <vfprintf+0x232>
 ad8:	2f 7e       	andi	r18, 0xEF	; 239
 ada:	b2 2e       	mov	r11, r18
 adc:	2a e0       	ldi	r18, 0x0A	; 10
 ade:	30 e0       	ldi	r19, 0x00	; 0
 ae0:	25 c0       	rjmp	.+74     	; 0xb2c <vfprintf+0x27c>
 ae2:	f2 2f       	mov	r31, r18
 ae4:	f9 7f       	andi	r31, 0xF9	; 249
 ae6:	bf 2e       	mov	r11, r31
 ae8:	8f 36       	cpi	r24, 0x6F	; 111
 aea:	c1 f0       	breq	.+48     	; 0xb1c <vfprintf+0x26c>
 aec:	18 f4       	brcc	.+6      	; 0xaf4 <vfprintf+0x244>
 aee:	88 35       	cpi	r24, 0x58	; 88
 af0:	79 f0       	breq	.+30     	; 0xb10 <vfprintf+0x260>
 af2:	ad c0       	rjmp	.+346    	; 0xc4e <vfprintf+0x39e>
 af4:	80 37       	cpi	r24, 0x70	; 112
 af6:	19 f0       	breq	.+6      	; 0xafe <vfprintf+0x24e>
 af8:	88 37       	cpi	r24, 0x78	; 120
 afa:	21 f0       	breq	.+8      	; 0xb04 <vfprintf+0x254>
 afc:	a8 c0       	rjmp	.+336    	; 0xc4e <vfprintf+0x39e>
 afe:	2f 2f       	mov	r18, r31
 b00:	20 61       	ori	r18, 0x10	; 16
 b02:	b2 2e       	mov	r11, r18
 b04:	b4 fe       	sbrs	r11, 4
 b06:	0d c0       	rjmp	.+26     	; 0xb22 <vfprintf+0x272>
 b08:	8b 2d       	mov	r24, r11
 b0a:	84 60       	ori	r24, 0x04	; 4
 b0c:	b8 2e       	mov	r11, r24
 b0e:	09 c0       	rjmp	.+18     	; 0xb22 <vfprintf+0x272>
 b10:	24 ff       	sbrs	r18, 4
 b12:	0a c0       	rjmp	.+20     	; 0xb28 <vfprintf+0x278>
 b14:	9f 2f       	mov	r25, r31
 b16:	96 60       	ori	r25, 0x06	; 6
 b18:	b9 2e       	mov	r11, r25
 b1a:	06 c0       	rjmp	.+12     	; 0xb28 <vfprintf+0x278>
 b1c:	28 e0       	ldi	r18, 0x08	; 8
 b1e:	30 e0       	ldi	r19, 0x00	; 0
 b20:	05 c0       	rjmp	.+10     	; 0xb2c <vfprintf+0x27c>
 b22:	20 e1       	ldi	r18, 0x10	; 16
 b24:	30 e0       	ldi	r19, 0x00	; 0
 b26:	02 c0       	rjmp	.+4      	; 0xb2c <vfprintf+0x27c>
 b28:	20 e1       	ldi	r18, 0x10	; 16
 b2a:	32 e0       	ldi	r19, 0x02	; 2
 b2c:	f8 01       	movw	r30, r16
 b2e:	b7 fe       	sbrs	r11, 7
 b30:	07 c0       	rjmp	.+14     	; 0xb40 <vfprintf+0x290>
 b32:	60 81       	ld	r22, Z
 b34:	71 81       	ldd	r23, Z+1	; 0x01
 b36:	82 81       	ldd	r24, Z+2	; 0x02
 b38:	93 81       	ldd	r25, Z+3	; 0x03
 b3a:	0c 5f       	subi	r16, 0xFC	; 252
 b3c:	1f 4f       	sbci	r17, 0xFF	; 255
 b3e:	06 c0       	rjmp	.+12     	; 0xb4c <vfprintf+0x29c>
 b40:	60 81       	ld	r22, Z
 b42:	71 81       	ldd	r23, Z+1	; 0x01
 b44:	80 e0       	ldi	r24, 0x00	; 0
 b46:	90 e0       	ldi	r25, 0x00	; 0
 b48:	0e 5f       	subi	r16, 0xFE	; 254
 b4a:	1f 4f       	sbci	r17, 0xFF	; 255
 b4c:	a4 01       	movw	r20, r8
 b4e:	ec d0       	rcall	.+472    	; 0xd28 <__ultoa_invert>
 b50:	a8 2e       	mov	r10, r24
 b52:	a8 18       	sub	r10, r8
 b54:	fb 2d       	mov	r31, r11
 b56:	ff 77       	andi	r31, 0x7F	; 127
 b58:	7f 2e       	mov	r7, r31
 b5a:	76 fe       	sbrs	r7, 6
 b5c:	0b c0       	rjmp	.+22     	; 0xb74 <vfprintf+0x2c4>
 b5e:	37 2d       	mov	r19, r7
 b60:	3e 7f       	andi	r19, 0xFE	; 254
 b62:	a5 14       	cp	r10, r5
 b64:	50 f4       	brcc	.+20     	; 0xb7a <vfprintf+0x2ca>
 b66:	74 fe       	sbrs	r7, 4
 b68:	0a c0       	rjmp	.+20     	; 0xb7e <vfprintf+0x2ce>
 b6a:	72 fc       	sbrc	r7, 2
 b6c:	08 c0       	rjmp	.+16     	; 0xb7e <vfprintf+0x2ce>
 b6e:	37 2d       	mov	r19, r7
 b70:	3e 7e       	andi	r19, 0xEE	; 238
 b72:	05 c0       	rjmp	.+10     	; 0xb7e <vfprintf+0x2ce>
 b74:	ba 2c       	mov	r11, r10
 b76:	37 2d       	mov	r19, r7
 b78:	03 c0       	rjmp	.+6      	; 0xb80 <vfprintf+0x2d0>
 b7a:	ba 2c       	mov	r11, r10
 b7c:	01 c0       	rjmp	.+2      	; 0xb80 <vfprintf+0x2d0>
 b7e:	b5 2c       	mov	r11, r5
 b80:	34 ff       	sbrs	r19, 4
 b82:	0d c0       	rjmp	.+26     	; 0xb9e <vfprintf+0x2ee>
 b84:	fe 01       	movw	r30, r28
 b86:	ea 0d       	add	r30, r10
 b88:	f1 1d       	adc	r31, r1
 b8a:	80 81       	ld	r24, Z
 b8c:	80 33       	cpi	r24, 0x30	; 48
 b8e:	11 f4       	brne	.+4      	; 0xb94 <vfprintf+0x2e4>
 b90:	39 7e       	andi	r19, 0xE9	; 233
 b92:	09 c0       	rjmp	.+18     	; 0xba6 <vfprintf+0x2f6>
 b94:	32 ff       	sbrs	r19, 2
 b96:	06 c0       	rjmp	.+12     	; 0xba4 <vfprintf+0x2f4>
 b98:	b3 94       	inc	r11
 b9a:	b3 94       	inc	r11
 b9c:	04 c0       	rjmp	.+8      	; 0xba6 <vfprintf+0x2f6>
 b9e:	83 2f       	mov	r24, r19
 ba0:	86 78       	andi	r24, 0x86	; 134
 ba2:	09 f0       	breq	.+2      	; 0xba6 <vfprintf+0x2f6>
 ba4:	b3 94       	inc	r11
 ba6:	33 fd       	sbrc	r19, 3
 ba8:	12 c0       	rjmp	.+36     	; 0xbce <vfprintf+0x31e>
 baa:	30 ff       	sbrs	r19, 0
 bac:	06 c0       	rjmp	.+12     	; 0xbba <vfprintf+0x30a>
 bae:	5a 2c       	mov	r5, r10
 bb0:	b3 14       	cp	r11, r3
 bb2:	18 f4       	brcc	.+6      	; 0xbba <vfprintf+0x30a>
 bb4:	53 0c       	add	r5, r3
 bb6:	5b 18       	sub	r5, r11
 bb8:	b3 2c       	mov	r11, r3
 bba:	b3 14       	cp	r11, r3
 bbc:	60 f4       	brcc	.+24     	; 0xbd6 <vfprintf+0x326>
 bbe:	b7 01       	movw	r22, r14
 bc0:	80 e2       	ldi	r24, 0x20	; 32
 bc2:	90 e0       	ldi	r25, 0x00	; 0
 bc4:	3c 87       	std	Y+12, r19	; 0x0c
 bc6:	78 d0       	rcall	.+240    	; 0xcb8 <fputc>
 bc8:	b3 94       	inc	r11
 bca:	3c 85       	ldd	r19, Y+12	; 0x0c
 bcc:	f6 cf       	rjmp	.-20     	; 0xbba <vfprintf+0x30a>
 bce:	b3 14       	cp	r11, r3
 bd0:	10 f4       	brcc	.+4      	; 0xbd6 <vfprintf+0x326>
 bd2:	3b 18       	sub	r3, r11
 bd4:	01 c0       	rjmp	.+2      	; 0xbd8 <vfprintf+0x328>
 bd6:	31 2c       	mov	r3, r1
 bd8:	34 ff       	sbrs	r19, 4
 bda:	11 c0       	rjmp	.+34     	; 0xbfe <vfprintf+0x34e>
 bdc:	b7 01       	movw	r22, r14
 bde:	80 e3       	ldi	r24, 0x30	; 48
 be0:	90 e0       	ldi	r25, 0x00	; 0
 be2:	3c 87       	std	Y+12, r19	; 0x0c
 be4:	69 d0       	rcall	.+210    	; 0xcb8 <fputc>
 be6:	3c 85       	ldd	r19, Y+12	; 0x0c
 be8:	32 ff       	sbrs	r19, 2
 bea:	16 c0       	rjmp	.+44     	; 0xc18 <vfprintf+0x368>
 bec:	31 fd       	sbrc	r19, 1
 bee:	03 c0       	rjmp	.+6      	; 0xbf6 <vfprintf+0x346>
 bf0:	88 e7       	ldi	r24, 0x78	; 120
 bf2:	90 e0       	ldi	r25, 0x00	; 0
 bf4:	02 c0       	rjmp	.+4      	; 0xbfa <vfprintf+0x34a>
 bf6:	88 e5       	ldi	r24, 0x58	; 88
 bf8:	90 e0       	ldi	r25, 0x00	; 0
 bfa:	b7 01       	movw	r22, r14
 bfc:	0c c0       	rjmp	.+24     	; 0xc16 <vfprintf+0x366>
 bfe:	83 2f       	mov	r24, r19
 c00:	86 78       	andi	r24, 0x86	; 134
 c02:	51 f0       	breq	.+20     	; 0xc18 <vfprintf+0x368>
 c04:	31 ff       	sbrs	r19, 1
 c06:	02 c0       	rjmp	.+4      	; 0xc0c <vfprintf+0x35c>
 c08:	8b e2       	ldi	r24, 0x2B	; 43
 c0a:	01 c0       	rjmp	.+2      	; 0xc0e <vfprintf+0x35e>
 c0c:	80 e2       	ldi	r24, 0x20	; 32
 c0e:	37 fd       	sbrc	r19, 7
 c10:	8d e2       	ldi	r24, 0x2D	; 45
 c12:	b7 01       	movw	r22, r14
 c14:	90 e0       	ldi	r25, 0x00	; 0
 c16:	50 d0       	rcall	.+160    	; 0xcb8 <fputc>
 c18:	a5 14       	cp	r10, r5
 c1a:	30 f4       	brcc	.+12     	; 0xc28 <vfprintf+0x378>
 c1c:	b7 01       	movw	r22, r14
 c1e:	80 e3       	ldi	r24, 0x30	; 48
 c20:	90 e0       	ldi	r25, 0x00	; 0
 c22:	4a d0       	rcall	.+148    	; 0xcb8 <fputc>
 c24:	5a 94       	dec	r5
 c26:	f8 cf       	rjmp	.-16     	; 0xc18 <vfprintf+0x368>
 c28:	aa 94       	dec	r10
 c2a:	f4 01       	movw	r30, r8
 c2c:	ea 0d       	add	r30, r10
 c2e:	f1 1d       	adc	r31, r1
 c30:	80 81       	ld	r24, Z
 c32:	b7 01       	movw	r22, r14
 c34:	90 e0       	ldi	r25, 0x00	; 0
 c36:	40 d0       	rcall	.+128    	; 0xcb8 <fputc>
 c38:	a1 10       	cpse	r10, r1
 c3a:	f6 cf       	rjmp	.-20     	; 0xc28 <vfprintf+0x378>
 c3c:	33 20       	and	r3, r3
 c3e:	09 f4       	brne	.+2      	; 0xc42 <vfprintf+0x392>
 c40:	5d ce       	rjmp	.-838    	; 0x8fc <vfprintf+0x4c>
 c42:	b7 01       	movw	r22, r14
 c44:	80 e2       	ldi	r24, 0x20	; 32
 c46:	90 e0       	ldi	r25, 0x00	; 0
 c48:	37 d0       	rcall	.+110    	; 0xcb8 <fputc>
 c4a:	3a 94       	dec	r3
 c4c:	f7 cf       	rjmp	.-18     	; 0xc3c <vfprintf+0x38c>
 c4e:	f7 01       	movw	r30, r14
 c50:	86 81       	ldd	r24, Z+6	; 0x06
 c52:	97 81       	ldd	r25, Z+7	; 0x07
 c54:	02 c0       	rjmp	.+4      	; 0xc5a <vfprintf+0x3aa>
 c56:	8f ef       	ldi	r24, 0xFF	; 255
 c58:	9f ef       	ldi	r25, 0xFF	; 255
 c5a:	2c 96       	adiw	r28, 0x0c	; 12
 c5c:	0f b6       	in	r0, 0x3f	; 63
 c5e:	f8 94       	cli
 c60:	de bf       	out	0x3e, r29	; 62
 c62:	0f be       	out	0x3f, r0	; 63
 c64:	cd bf       	out	0x3d, r28	; 61
 c66:	df 91       	pop	r29
 c68:	cf 91       	pop	r28
 c6a:	1f 91       	pop	r17
 c6c:	0f 91       	pop	r16
 c6e:	ff 90       	pop	r15
 c70:	ef 90       	pop	r14
 c72:	df 90       	pop	r13
 c74:	cf 90       	pop	r12
 c76:	bf 90       	pop	r11
 c78:	af 90       	pop	r10
 c7a:	9f 90       	pop	r9
 c7c:	8f 90       	pop	r8
 c7e:	7f 90       	pop	r7
 c80:	6f 90       	pop	r6
 c82:	5f 90       	pop	r5
 c84:	4f 90       	pop	r4
 c86:	3f 90       	pop	r3
 c88:	2f 90       	pop	r2
 c8a:	08 95       	ret

00000c8c <strnlen_P>:
 c8c:	fc 01       	movw	r30, r24
 c8e:	05 90       	lpm	r0, Z+
 c90:	61 50       	subi	r22, 0x01	; 1
 c92:	70 40       	sbci	r23, 0x00	; 0
 c94:	01 10       	cpse	r0, r1
 c96:	d8 f7       	brcc	.-10     	; 0xc8e <strnlen_P+0x2>
 c98:	80 95       	com	r24
 c9a:	90 95       	com	r25
 c9c:	8e 0f       	add	r24, r30
 c9e:	9f 1f       	adc	r25, r31
 ca0:	08 95       	ret

00000ca2 <strnlen>:
 ca2:	fc 01       	movw	r30, r24
 ca4:	61 50       	subi	r22, 0x01	; 1
 ca6:	70 40       	sbci	r23, 0x00	; 0
 ca8:	01 90       	ld	r0, Z+
 caa:	01 10       	cpse	r0, r1
 cac:	d8 f7       	brcc	.-10     	; 0xca4 <strnlen+0x2>
 cae:	80 95       	com	r24
 cb0:	90 95       	com	r25
 cb2:	8e 0f       	add	r24, r30
 cb4:	9f 1f       	adc	r25, r31
 cb6:	08 95       	ret

00000cb8 <fputc>:
 cb8:	0f 93       	push	r16
 cba:	1f 93       	push	r17
 cbc:	cf 93       	push	r28
 cbe:	df 93       	push	r29
 cc0:	fb 01       	movw	r30, r22
 cc2:	23 81       	ldd	r18, Z+3	; 0x03
 cc4:	21 fd       	sbrc	r18, 1
 cc6:	03 c0       	rjmp	.+6      	; 0xcce <fputc+0x16>
 cc8:	8f ef       	ldi	r24, 0xFF	; 255
 cca:	9f ef       	ldi	r25, 0xFF	; 255
 ccc:	28 c0       	rjmp	.+80     	; 0xd1e <fputc+0x66>
 cce:	22 ff       	sbrs	r18, 2
 cd0:	16 c0       	rjmp	.+44     	; 0xcfe <fputc+0x46>
 cd2:	46 81       	ldd	r20, Z+6	; 0x06
 cd4:	57 81       	ldd	r21, Z+7	; 0x07
 cd6:	24 81       	ldd	r18, Z+4	; 0x04
 cd8:	35 81       	ldd	r19, Z+5	; 0x05
 cda:	42 17       	cp	r20, r18
 cdc:	53 07       	cpc	r21, r19
 cde:	44 f4       	brge	.+16     	; 0xcf0 <fputc+0x38>
 ce0:	a0 81       	ld	r26, Z
 ce2:	b1 81       	ldd	r27, Z+1	; 0x01
 ce4:	9d 01       	movw	r18, r26
 ce6:	2f 5f       	subi	r18, 0xFF	; 255
 ce8:	3f 4f       	sbci	r19, 0xFF	; 255
 cea:	31 83       	std	Z+1, r19	; 0x01
 cec:	20 83       	st	Z, r18
 cee:	8c 93       	st	X, r24
 cf0:	26 81       	ldd	r18, Z+6	; 0x06
 cf2:	37 81       	ldd	r19, Z+7	; 0x07
 cf4:	2f 5f       	subi	r18, 0xFF	; 255
 cf6:	3f 4f       	sbci	r19, 0xFF	; 255
 cf8:	37 83       	std	Z+7, r19	; 0x07
 cfa:	26 83       	std	Z+6, r18	; 0x06
 cfc:	10 c0       	rjmp	.+32     	; 0xd1e <fputc+0x66>
 cfe:	eb 01       	movw	r28, r22
 d00:	09 2f       	mov	r16, r25
 d02:	18 2f       	mov	r17, r24
 d04:	00 84       	ldd	r0, Z+8	; 0x08
 d06:	f1 85       	ldd	r31, Z+9	; 0x09
 d08:	e0 2d       	mov	r30, r0
 d0a:	19 95       	eicall
 d0c:	89 2b       	or	r24, r25
 d0e:	e1 f6       	brne	.-72     	; 0xcc8 <fputc+0x10>
 d10:	8e 81       	ldd	r24, Y+6	; 0x06
 d12:	9f 81       	ldd	r25, Y+7	; 0x07
 d14:	01 96       	adiw	r24, 0x01	; 1
 d16:	9f 83       	std	Y+7, r25	; 0x07
 d18:	8e 83       	std	Y+6, r24	; 0x06
 d1a:	81 2f       	mov	r24, r17
 d1c:	90 2f       	mov	r25, r16
 d1e:	df 91       	pop	r29
 d20:	cf 91       	pop	r28
 d22:	1f 91       	pop	r17
 d24:	0f 91       	pop	r16
 d26:	08 95       	ret

00000d28 <__ultoa_invert>:
 d28:	fa 01       	movw	r30, r20
 d2a:	aa 27       	eor	r26, r26
 d2c:	28 30       	cpi	r18, 0x08	; 8
 d2e:	51 f1       	breq	.+84     	; 0xd84 <__ultoa_invert+0x5c>
 d30:	20 31       	cpi	r18, 0x10	; 16
 d32:	81 f1       	breq	.+96     	; 0xd94 <__ultoa_invert+0x6c>
 d34:	e8 94       	clt
 d36:	6f 93       	push	r22
 d38:	6e 7f       	andi	r22, 0xFE	; 254
 d3a:	6e 5f       	subi	r22, 0xFE	; 254
 d3c:	7f 4f       	sbci	r23, 0xFF	; 255
 d3e:	8f 4f       	sbci	r24, 0xFF	; 255
 d40:	9f 4f       	sbci	r25, 0xFF	; 255
 d42:	af 4f       	sbci	r26, 0xFF	; 255
 d44:	b1 e0       	ldi	r27, 0x01	; 1
 d46:	3e d0       	rcall	.+124    	; 0xdc4 <__ultoa_invert+0x9c>
 d48:	b4 e0       	ldi	r27, 0x04	; 4
 d4a:	3c d0       	rcall	.+120    	; 0xdc4 <__ultoa_invert+0x9c>
 d4c:	67 0f       	add	r22, r23
 d4e:	78 1f       	adc	r23, r24
 d50:	89 1f       	adc	r24, r25
 d52:	9a 1f       	adc	r25, r26
 d54:	a1 1d       	adc	r26, r1
 d56:	68 0f       	add	r22, r24
 d58:	79 1f       	adc	r23, r25
 d5a:	8a 1f       	adc	r24, r26
 d5c:	91 1d       	adc	r25, r1
 d5e:	a1 1d       	adc	r26, r1
 d60:	6a 0f       	add	r22, r26
 d62:	71 1d       	adc	r23, r1
 d64:	81 1d       	adc	r24, r1
 d66:	91 1d       	adc	r25, r1
 d68:	a1 1d       	adc	r26, r1
 d6a:	20 d0       	rcall	.+64     	; 0xdac <__ultoa_invert+0x84>
 d6c:	09 f4       	brne	.+2      	; 0xd70 <__ultoa_invert+0x48>
 d6e:	68 94       	set
 d70:	3f 91       	pop	r19
 d72:	2a e0       	ldi	r18, 0x0A	; 10
 d74:	26 9f       	mul	r18, r22
 d76:	11 24       	eor	r1, r1
 d78:	30 19       	sub	r19, r0
 d7a:	30 5d       	subi	r19, 0xD0	; 208
 d7c:	31 93       	st	Z+, r19
 d7e:	de f6       	brtc	.-74     	; 0xd36 <__ultoa_invert+0xe>
 d80:	cf 01       	movw	r24, r30
 d82:	08 95       	ret
 d84:	46 2f       	mov	r20, r22
 d86:	47 70       	andi	r20, 0x07	; 7
 d88:	40 5d       	subi	r20, 0xD0	; 208
 d8a:	41 93       	st	Z+, r20
 d8c:	b3 e0       	ldi	r27, 0x03	; 3
 d8e:	0f d0       	rcall	.+30     	; 0xdae <__ultoa_invert+0x86>
 d90:	c9 f7       	brne	.-14     	; 0xd84 <__ultoa_invert+0x5c>
 d92:	f6 cf       	rjmp	.-20     	; 0xd80 <__ultoa_invert+0x58>
 d94:	46 2f       	mov	r20, r22
 d96:	4f 70       	andi	r20, 0x0F	; 15
 d98:	40 5d       	subi	r20, 0xD0	; 208
 d9a:	4a 33       	cpi	r20, 0x3A	; 58
 d9c:	18 f0       	brcs	.+6      	; 0xda4 <__ultoa_invert+0x7c>
 d9e:	49 5d       	subi	r20, 0xD9	; 217
 da0:	31 fd       	sbrc	r19, 1
 da2:	40 52       	subi	r20, 0x20	; 32
 da4:	41 93       	st	Z+, r20
 da6:	02 d0       	rcall	.+4      	; 0xdac <__ultoa_invert+0x84>
 da8:	a9 f7       	brne	.-22     	; 0xd94 <__ultoa_invert+0x6c>
 daa:	ea cf       	rjmp	.-44     	; 0xd80 <__ultoa_invert+0x58>
 dac:	b4 e0       	ldi	r27, 0x04	; 4
 dae:	a6 95       	lsr	r26
 db0:	97 95       	ror	r25
 db2:	87 95       	ror	r24
 db4:	77 95       	ror	r23
 db6:	67 95       	ror	r22
 db8:	ba 95       	dec	r27
 dba:	c9 f7       	brne	.-14     	; 0xdae <__ultoa_invert+0x86>
 dbc:	00 97       	sbiw	r24, 0x00	; 0
 dbe:	61 05       	cpc	r22, r1
 dc0:	71 05       	cpc	r23, r1
 dc2:	08 95       	ret
 dc4:	9b 01       	movw	r18, r22
 dc6:	ac 01       	movw	r20, r24
 dc8:	0a 2e       	mov	r0, r26
 dca:	06 94       	lsr	r0
 dcc:	57 95       	ror	r21
 dce:	47 95       	ror	r20
 dd0:	37 95       	ror	r19
 dd2:	27 95       	ror	r18
 dd4:	ba 95       	dec	r27
 dd6:	c9 f7       	brne	.-14     	; 0xdca <__ultoa_invert+0xa2>
 dd8:	62 0f       	add	r22, r18
 dda:	73 1f       	adc	r23, r19
 ddc:	84 1f       	adc	r24, r20
 dde:	95 1f       	adc	r25, r21
 de0:	a0 1d       	adc	r26, r0
 de2:	08 95       	ret

00000de4 <_exit>:
 de4:	f8 94       	cli

00000de6 <__stop_program>:
 de6:	ff cf       	rjmp	.-2      	; 0xde6 <__stop_program>
