
Final.elf:     file format elf32-avr

Sections:
Idx Name          Size      VMA       LMA       File off  Algn
  0 .data         000003bc  00800200  00001ac6  00001b5a  2**0
                  CONTENTS, ALLOC, LOAD, DATA
  1 .text         00001ac6  00000000  00000000  00000094  2**1
                  CONTENTS, ALLOC, LOAD, READONLY, CODE
  2 .bss          000008a8  008005bc  008005bc  00001f16  2**0
                  ALLOC
  3 .comment      0000008c  00000000  00000000  00001f16  2**0
                  CONTENTS, READONLY
  4 .note.gnu.avr.deviceinfo 00000040  00000000  00000000  00001fa4  2**2
                  CONTENTS, READONLY
  5 .debug_aranges 00000148  00000000  00000000  00001fe8  2**3
                  CONTENTS, READONLY, DEBUGGING
  6 .debug_info   00002585  00000000  00000000  00002130  2**0
                  CONTENTS, READONLY, DEBUGGING
  7 .debug_abbrev 000011db  00000000  00000000  000046b5  2**0
                  CONTENTS, READONLY, DEBUGGING
  8 .debug_line   0000122a  00000000  00000000  00005890  2**0
                  CONTENTS, READONLY, DEBUGGING
  9 .debug_frame  00000344  00000000  00000000  00006abc  2**2
                  CONTENTS, READONLY, DEBUGGING
 10 .debug_str    0000096c  00000000  00000000  00006e00  2**0
                  CONTENTS, READONLY, DEBUGGING
 11 .debug_loc    0000105b  00000000  00000000  0000776c  2**0
                  CONTENTS, READONLY, DEBUGGING
 12 .debug_ranges 00000160  00000000  00000000  000087c7  2**0
                  CONTENTS, READONLY, DEBUGGING

Disassembly of section .text:

00000000 <__vectors>:
       0:	8f c0       	rjmp	.+286    	; 0x120 <__ctors_end>
       2:	00 00       	nop
       4:	ad c0       	rjmp	.+346    	; 0x160 <__bad_interrupt>
       6:	00 00       	nop
       8:	ab c0       	rjmp	.+342    	; 0x160 <__bad_interrupt>
       a:	00 00       	nop
       c:	a9 c0       	rjmp	.+338    	; 0x160 <__bad_interrupt>
       e:	00 00       	nop
      10:	a7 c0       	rjmp	.+334    	; 0x160 <__bad_interrupt>
      12:	00 00       	nop
      14:	a5 c0       	rjmp	.+330    	; 0x160 <__bad_interrupt>
      16:	00 00       	nop
      18:	a3 c0       	rjmp	.+326    	; 0x160 <__bad_interrupt>
      1a:	00 00       	nop
      1c:	a1 c0       	rjmp	.+322    	; 0x160 <__bad_interrupt>
      1e:	00 00       	nop
      20:	9f c0       	rjmp	.+318    	; 0x160 <__bad_interrupt>
      22:	00 00       	nop
      24:	9d c0       	rjmp	.+314    	; 0x160 <__bad_interrupt>
      26:	00 00       	nop
      28:	9b c0       	rjmp	.+310    	; 0x160 <__bad_interrupt>
      2a:	00 00       	nop
      2c:	99 c0       	rjmp	.+306    	; 0x160 <__bad_interrupt>
      2e:	00 00       	nop
      30:	97 c0       	rjmp	.+302    	; 0x160 <__bad_interrupt>
      32:	00 00       	nop
      34:	95 c0       	rjmp	.+298    	; 0x160 <__bad_interrupt>
      36:	00 00       	nop
      38:	93 c0       	rjmp	.+294    	; 0x160 <__bad_interrupt>
      3a:	00 00       	nop
      3c:	91 c0       	rjmp	.+290    	; 0x160 <__bad_interrupt>
      3e:	00 00       	nop
      40:	8f c0       	rjmp	.+286    	; 0x160 <__bad_interrupt>
      42:	00 00       	nop
      44:	8d c0       	rjmp	.+282    	; 0x160 <__bad_interrupt>
      46:	00 00       	nop
      48:	8b c0       	rjmp	.+278    	; 0x160 <__bad_interrupt>
      4a:	00 00       	nop
      4c:	89 c0       	rjmp	.+274    	; 0x160 <__bad_interrupt>
      4e:	00 00       	nop
      50:	87 c0       	rjmp	.+270    	; 0x160 <__bad_interrupt>
      52:	00 00       	nop
      54:	9c c7       	rjmp	.+3896   	; 0xf8e <__vector_21>
      56:	00 00       	nop
      58:	83 c0       	rjmp	.+262    	; 0x160 <__bad_interrupt>
      5a:	00 00       	nop
      5c:	81 c0       	rjmp	.+258    	; 0x160 <__bad_interrupt>
      5e:	00 00       	nop
      60:	7f c0       	rjmp	.+254    	; 0x160 <__bad_interrupt>
      62:	00 00       	nop
      64:	47 c4       	rjmp	.+2190   	; 0x8f4 <__vector_25>
      66:	00 00       	nop
      68:	7b c0       	rjmp	.+246    	; 0x160 <__bad_interrupt>
      6a:	00 00       	nop
      6c:	79 c0       	rjmp	.+242    	; 0x160 <__bad_interrupt>
      6e:	00 00       	nop
      70:	77 c0       	rjmp	.+238    	; 0x160 <__bad_interrupt>
      72:	00 00       	nop
      74:	75 c0       	rjmp	.+234    	; 0x160 <__bad_interrupt>
      76:	00 00       	nop
      78:	73 c0       	rjmp	.+230    	; 0x160 <__bad_interrupt>
      7a:	00 00       	nop
      7c:	71 c0       	rjmp	.+226    	; 0x160 <__bad_interrupt>
      7e:	00 00       	nop
      80:	6f c0       	rjmp	.+222    	; 0x160 <__bad_interrupt>
      82:	00 00       	nop
      84:	6d c0       	rjmp	.+218    	; 0x160 <__bad_interrupt>
      86:	00 00       	nop
      88:	6b c0       	rjmp	.+214    	; 0x160 <__bad_interrupt>
      8a:	00 00       	nop
      8c:	69 c0       	rjmp	.+210    	; 0x160 <__bad_interrupt>
      8e:	00 00       	nop
      90:	67 c0       	rjmp	.+206    	; 0x160 <__bad_interrupt>
      92:	00 00       	nop
      94:	65 c0       	rjmp	.+202    	; 0x160 <__bad_interrupt>
      96:	00 00       	nop
      98:	63 c0       	rjmp	.+198    	; 0x160 <__bad_interrupt>
      9a:	00 00       	nop
      9c:	61 c0       	rjmp	.+194    	; 0x160 <__bad_interrupt>
      9e:	00 00       	nop
      a0:	5f c0       	rjmp	.+190    	; 0x160 <__bad_interrupt>
      a2:	00 00       	nop
      a4:	5d c0       	rjmp	.+186    	; 0x160 <__bad_interrupt>
      a6:	00 00       	nop
      a8:	5b c0       	rjmp	.+182    	; 0x160 <__bad_interrupt>
      aa:	00 00       	nop
      ac:	59 c0       	rjmp	.+178    	; 0x160 <__bad_interrupt>
      ae:	00 00       	nop
      b0:	57 c0       	rjmp	.+174    	; 0x160 <__bad_interrupt>
      b2:	00 00       	nop
      b4:	55 c0       	rjmp	.+170    	; 0x160 <__bad_interrupt>
      b6:	00 00       	nop
      b8:	53 c0       	rjmp	.+166    	; 0x160 <__bad_interrupt>
      ba:	00 00       	nop
      bc:	51 c0       	rjmp	.+162    	; 0x160 <__bad_interrupt>
      be:	00 00       	nop
      c0:	4f c0       	rjmp	.+158    	; 0x160 <__bad_interrupt>
      c2:	00 00       	nop
      c4:	4d c0       	rjmp	.+154    	; 0x160 <__bad_interrupt>
      c6:	00 00       	nop
      c8:	4b c0       	rjmp	.+150    	; 0x160 <__bad_interrupt>
      ca:	00 00       	nop
      cc:	49 c0       	rjmp	.+146    	; 0x160 <__bad_interrupt>
      ce:	00 00       	nop
      d0:	47 c0       	rjmp	.+142    	; 0x160 <__bad_interrupt>
      d2:	00 00       	nop
      d4:	45 c0       	rjmp	.+138    	; 0x160 <__bad_interrupt>
      d6:	00 00       	nop
      d8:	43 c0       	rjmp	.+134    	; 0x160 <__bad_interrupt>
      da:	00 00       	nop
      dc:	41 c0       	rjmp	.+130    	; 0x160 <__bad_interrupt>
      de:	00 00       	nop
      e0:	3f c0       	rjmp	.+126    	; 0x160 <__bad_interrupt>
	...

000000e4 <__trampolines_end>:
      e4:	4e 41       	sbci	r20, 0x1E	; 30
      e6:	4e 49       	Address 0x000000e6 is out of bounds.
.word	0xffff	; ????

000000e7 <pstr_inity>:
      e7:	49 4e 49 54 59                                      INITY

000000ec <pstr_inf>:
      ec:	49 4e 46                                            INF

000000ef <pwr_m10>:
      ef:	cd cc cc 3d 0a d7 23 3c 17 b7 d1 38 77 cc 2b 32     ...=..#<...8w.+2
      ff:	95 95 e6 24 1f b1 4f 0a                             ...$..O.

00000107 <pwr_p10>:
     107:	00 00 20 41 00 00 c8 42 00 40 1c 46 20 bc be 4c     .. A...B.@.F ..L
     117:	ca 1b 0e 5a ae c5 9d 74 00                          ...Z...t.

00000120 <__ctors_end>:
     120:	11 24       	eor	r1, r1
     122:	1f be       	out	0x3f, r1	; 63
     124:	cf ef       	ldi	r28, 0xFF	; 255
     126:	d1 e2       	ldi	r29, 0x21	; 33
     128:	de bf       	out	0x3e, r29	; 62
     12a:	cd bf       	out	0x3d, r28	; 61
     12c:	00 e0       	ldi	r16, 0x00	; 0
     12e:	0c bf       	out	0x3c, r16	; 60

00000130 <__do_copy_data>:
     130:	15 e0       	ldi	r17, 0x05	; 5
     132:	a0 e0       	ldi	r26, 0x00	; 0
     134:	b2 e0       	ldi	r27, 0x02	; 2
     136:	e6 ec       	ldi	r30, 0xC6	; 198
     138:	fa e1       	ldi	r31, 0x1A	; 26
     13a:	00 e0       	ldi	r16, 0x00	; 0
     13c:	0b bf       	out	0x3b, r16	; 59
     13e:	02 c0       	rjmp	.+4      	; 0x144 <__do_copy_data+0x14>
     140:	07 90       	elpm	r0, Z+
     142:	0d 92       	st	X+, r0
     144:	ac 3b       	cpi	r26, 0xBC	; 188
     146:	b1 07       	cpc	r27, r17
     148:	d9 f7       	brne	.-10     	; 0x140 <__do_copy_data+0x10>

0000014a <__do_clear_bss>:
     14a:	2e e0       	ldi	r18, 0x0E	; 14
     14c:	ac eb       	ldi	r26, 0xBC	; 188
     14e:	b5 e0       	ldi	r27, 0x05	; 5
     150:	01 c0       	rjmp	.+2      	; 0x154 <.do_clear_bss_start>

00000152 <.do_clear_bss_loop>:
     152:	1d 92       	st	X+, r1

00000154 <.do_clear_bss_start>:
     154:	a4 36       	cpi	r26, 0x64	; 100
     156:	b2 07       	cpc	r27, r18
     158:	e1 f7       	brne	.-8      	; 0x152 <.do_clear_bss_loop>
     15a:	97 d1       	rcall	.+814    	; 0x48a <main>
     15c:	0c 94 61 0d 	jmp	0x1ac2	; 0x1ac2 <_exit>

00000160 <__bad_interrupt>:
     160:	4f cf       	rjmp	.-354    	; 0x0 <__vectors>

00000162 <delay_usec>:
		.section .text
		.global	delay_usec

 delay_usec:		;4 cycles of RCALL
					   ;2 cycles for parameter => parameter is in r24 and r25
	ldi r18, 0x01	;set to one
     162:	21 e0       	ldi	r18, 0x01	; 1
	eor r19, r19	;zero out high bits
     164:	33 27       	eor	r19, r19
	cp	r18, r24
     166:	28 17       	cp	r18, r24
	cpc r19, r25	;Check if parameter is 1
     168:	39 07       	cpc	r19, r25
	brne testzero	;two cycles if true, one if false
     16a:	09 f4       	brne	.+2      	; 0x16e <testzero>
	ret				;If one, branch fails
     16c:	08 95       	ret

0000016e <testzero>:
	
testzero:			;at 12 cycles
	eor r18, r18	;zero low bits
     16e:	22 27       	eor	r18, r18
	cp  r18, r24
     170:	28 17       	cp	r18, r24
	cpc r19, r25	
     172:	39 07       	cpc	r19, r25
	breq zero		;at 16 cycles if fail, 17 if parameter is zero
     174:	79 f0       	breq	.+30     	; 0x194 <zero>

00000176 <loop>:

loop:				;16 cycles have passed, parameter needs to be parameter-1
	sbiw r24, 0x01	;2 cycles, parameter-1
     176:	01 97       	sbiw	r24, 0x01	; 1
	nop
     178:	00 00       	nop
	nop
     17a:	00 00       	nop
	nop
     17c:	00 00       	nop
	ldi r18, 0x01	;set to one
     17e:	21 e0       	ldi	r18, 0x01	; 1
	eor r19, r19	;zero out high bits
     180:	33 27       	eor	r19, r19
	cp	r18, r24
     182:	28 17       	cp	r18, r24
	cpc r19, r25
     184:	39 07       	cpc	r19, r25
	breq one		;if one => 2 cycles, if greater than => 1 cycle
     186:	29 f0       	breq	.+10     	; 0x192 <one>
	...
	nop
	nop
	nop
	nop
	rjmp loop
     190:	f2 cf       	rjmp	.-28     	; 0x176 <loop>

00000192 <one>:

one:
	ret				;5 cycles
     192:	08 95       	ret

00000194 <zero>:
		
zero:				;17 cycles, need to burn 15, then jump to loop with MAX-1
	ldi	r24, 0xFF				
     194:	8f ef       	ldi	r24, 0xFF	; 255
	ldi r25, 0xFF	;sets parameter to 65536-1
     196:	9f ef       	ldi	r25, 0xFF	; 255
	...
	nop
	nop
	nop
	nop
	nop
	nop
     1ac:	00 00       	nop
     1ae:	e3 cf       	rjmp	.-58     	; 0x176 <loop>

000001b0 <x_yield>:
     1b0:	2f 92       	push	r2
     1b2:	3f 92       	push	r3
     1b4:	4f 92       	push	r4
     1b6:	5f 92       	push	r5
     1b8:	6f 92       	push	r6
     1ba:	7f 92       	push	r7
     1bc:	8f 92       	push	r8
     1be:	9f 92       	push	r9
     1c0:	af 92       	push	r10
     1c2:	bf 92       	push	r11
     1c4:	cf 92       	push	r12
     1c6:	df 92       	push	r13
     1c8:	ef 92       	push	r14
     1ca:	ff 92       	push	r15
     1cc:	0f 93       	push	r16
     1ce:	1f 93       	push	r17
     1d0:	cf 93       	push	r28
     1d2:	df 93       	push	r29
     1d4:	20 91 2d 06 	lds	r18, 0x062D	; 0x80062d <x_thread_id>
     1d8:	30 91 61 0e 	lds	r19, 0x0E61	; 0x800e61 <x_thread_mask>
     1dc:	f8 94       	cli
     1de:	ed b6       	in	r14, 0x3d	; 61
     1e0:	fe b6       	in	r15, 0x3e	; 62
     1e2:	78 94       	sei
     1e4:	ef e2       	ldi	r30, 0x2F	; 47
     1e6:	f6 e0       	ldi	r31, 0x06	; 6
     1e8:	22 0f       	add	r18, r18
     1ea:	cb e0       	ldi	r28, 0x0B	; 11
     1ec:	d2 e0       	ldi	r29, 0x02	; 2
     1ee:	c2 0f       	add	r28, r18
     1f0:	d1 1d       	adc	r29, r1
     1f2:	19 91       	ld	r17, Y+
     1f4:	d8 81       	ld	r29, Y
     1f6:	c1 2f       	mov	r28, r17
     1f8:	18 81       	ld	r17, Y
     1fa:	1a 3a       	cpi	r17, 0xAA	; 170
     1fc:	21 f0       	breq	.+8      	; 0x206 <x_yield+0x56>
     1fe:	80 91 2d 06 	lds	r24, 0x062D	; 0x80062d <x_thread_id>
     202:	91 2d       	mov	r25, r1
     204:	10 c7       	rjmp	.+3616   	; 0x1026 <x_stack_overflow>
     206:	22 0f       	add	r18, r18
     208:	e2 0f       	add	r30, r18
     20a:	f1 1d       	adc	r31, r1
     20c:	e1 92       	st	Z+, r14
     20e:	f0 82       	st	Z, r15

00000210 <x_schedule>:
     210:	20 91 60 0e 	lds	r18, 0x0E60	; 0x800e60 <x_disable_status>
     214:	30 91 2e 06 	lds	r19, 0x062E	; 0x80062e <x_delay_status>
     218:	40 91 4f 06 	lds	r20, 0x064F	; 0x80064f <x_suspend_status>
     21c:	23 2b       	or	r18, r19
     21e:	24 2b       	or	r18, r20
     220:	30 91 2d 06 	lds	r19, 0x062D	; 0x80062d <x_thread_id>
     224:	40 91 61 0e 	lds	r20, 0x0E61	; 0x800e61 <x_thread_mask>
     228:	68 e0       	ldi	r22, 0x08	; 8
     22a:	88 94       	clc
     22c:	33 95       	inc	r19
     22e:	37 70       	andi	r19, 0x07	; 7
     230:	44 1f       	adc	r20, r20
     232:	41 1d       	adc	r20, r1
     234:	74 2f       	mov	r23, r20
     236:	42 23       	and	r20, r18
     238:	19 f0       	breq	.+6      	; 0x240 <restore>
     23a:	6a 95       	dec	r22
     23c:	b9 f7       	brne	.-18     	; 0x22c <x_schedule+0x1c>
     23e:	e8 cf       	rjmp	.-48     	; 0x210 <x_schedule>

00000240 <restore>:
     240:	30 93 2d 06 	sts	0x062D, r19	; 0x80062d <x_thread_id>
     244:	70 93 61 0e 	sts	0x0E61, r23	; 0x800e61 <x_thread_mask>
     248:	ef e2       	ldi	r30, 0x2F	; 47
     24a:	f6 e0       	ldi	r31, 0x06	; 6
     24c:	33 0f       	add	r19, r19
     24e:	33 0f       	add	r19, r19
     250:	e3 0f       	add	r30, r19
     252:	f1 1d       	adc	r31, r1
     254:	21 91       	ld	r18, Z+
     256:	30 81       	ld	r19, Z
     258:	f8 94       	cli
     25a:	2d bf       	out	0x3d, r18	; 61
     25c:	3e bf       	out	0x3e, r19	; 62
     25e:	78 94       	sei
     260:	df 91       	pop	r29
     262:	cf 91       	pop	r28
     264:	1f 91       	pop	r17
     266:	0f 91       	pop	r16
     268:	ff 90       	pop	r15
     26a:	ef 90       	pop	r14
     26c:	df 90       	pop	r13
     26e:	cf 90       	pop	r12
     270:	bf 90       	pop	r11
     272:	af 90       	pop	r10
     274:	9f 90       	pop	r9
     276:	8f 90       	pop	r8
     278:	7f 90       	pop	r7
     27a:	6f 90       	pop	r6
     27c:	5f 90       	pop	r5
     27e:	85 2d       	mov	r24, r5
     280:	4f 90       	pop	r4
     282:	94 2d       	mov	r25, r4
     284:	3f 90       	pop	r3
     286:	63 2d       	mov	r22, r3
     288:	2f 90       	pop	r2
     28a:	72 2d       	mov	r23, r2
     28c:	08 95       	ret

0000028e <bit2mask8>:
     28e:	ea e9       	ldi	r30, 0x9A	; 154
     290:	f2 e0       	ldi	r31, 0x02	; 2
     292:	e8 0f       	add	r30, r24
     294:	f1 1d       	adc	r31, r1
     296:	84 91       	lpm	r24, Z
     298:	08 95       	ret

0000029a <bitmask8_table>:
     29a:	01 02       	muls	r16, r17
     29c:	04 08       	sbc	r0, r4
     29e:	10 20       	and	r1, r0
     2a0:	40 80       	ld	r4, Z

000002a2 <update_lamp>:
char serial_read(void) {
	while(!(UCSR0A & (1 << RXC0))) {
		//wait until Receive Complete
	}
	return UDR0;
}
     2a2:	cf 92       	push	r12
     2a4:	df 92       	push	r13
     2a6:	ef 92       	push	r14
     2a8:	ff 92       	push	r15
     2aa:	6b 01       	movw	r12, r22
     2ac:	7c 01       	movw	r14, r24
     2ae:	60 91 07 02 	lds	r22, 0x0207	; 0x800207 <TLOW>
     2b2:	70 91 08 02 	lds	r23, 0x0208	; 0x800208 <TLOW+0x1>
     2b6:	80 91 09 02 	lds	r24, 0x0209	; 0x800209 <TLOW+0x2>
     2ba:	90 91 0a 02 	lds	r25, 0x020A	; 0x80020a <TLOW+0x3>
     2be:	a7 01       	movw	r20, r14
     2c0:	96 01       	movw	r18, r12
     2c2:	27 d5       	rcall	.+2638   	; 0xd12 <__gesf2>
     2c4:	18 16       	cp	r1, r24
     2c6:	24 f4       	brge	.+8      	; 0x2d0 <update_lamp+0x2e>
     2c8:	81 e0       	ldi	r24, 0x01	; 1
     2ca:	80 93 c3 05 	sts	0x05C3, r24	; 0x8005c3 <HEATING>
     2ce:	0f c0       	rjmp	.+30     	; 0x2ee <update_lamp+0x4c>
     2d0:	20 91 03 02 	lds	r18, 0x0203	; 0x800203 <THIGH>
     2d4:	30 91 04 02 	lds	r19, 0x0204	; 0x800204 <THIGH+0x1>
     2d8:	40 91 05 02 	lds	r20, 0x0205	; 0x800205 <THIGH+0x2>
     2dc:	50 91 06 02 	lds	r21, 0x0206	; 0x800206 <THIGH+0x3>
     2e0:	c7 01       	movw	r24, r14
     2e2:	b6 01       	movw	r22, r12
     2e4:	16 d5       	rcall	.+2604   	; 0xd12 <__gesf2>
     2e6:	18 16       	cp	r1, r24
     2e8:	14 f4       	brge	.+4      	; 0x2ee <update_lamp+0x4c>
     2ea:	10 92 c3 05 	sts	0x05C3, r1	; 0x8005c3 <HEATING>
     2ee:	80 91 c3 05 	lds	r24, 0x05C3	; 0x8005c3 <HEATING>
     2f2:	88 23       	and	r24, r24
     2f4:	11 f0       	breq	.+4      	; 0x2fa <update_lamp+0x58>
     2f6:	89 9a       	sbi	0x11, 1	; 17
     2f8:	03 c0       	rjmp	.+6      	; 0x300 <update_lamp+0x5e>
     2fa:	81 b3       	in	r24, 0x11	; 17
     2fc:	8c 7f       	andi	r24, 0xFC	; 252
     2fe:	81 bb       	out	0x11, r24	; 17
     300:	ff 90       	pop	r15
     302:	ef 90       	pop	r14
     304:	df 90       	pop	r13
     306:	cf 90       	pop	r12
     308:	08 95       	ret

0000030a <ftemp_to_string>:
     30a:	cf 92       	push	r12
     30c:	df 92       	push	r13
     30e:	ef 92       	push	r14
     310:	ff 92       	push	r15
     312:	cf 93       	push	r28
     314:	df 93       	push	r29
     316:	c8 2f       	mov	r28, r24
     318:	d9 2f       	mov	r29, r25
     31a:	cb 01       	movw	r24, r22
     31c:	ba 01       	movw	r22, r20
     31e:	20 e0       	ldi	r18, 0x00	; 0
     320:	30 e0       	ldi	r19, 0x00	; 0
     322:	40 e2       	ldi	r20, 0x20	; 32
     324:	51 e4       	ldi	r21, 0x41	; 65
     326:	f9 d4       	rcall	.+2546   	; 0xd1a <__mulsf3>
     328:	6b 01       	movw	r12, r22
     32a:	7c 01       	movw	r14, r24
     32c:	0f d4       	rcall	.+2078   	; 0xb4c <__fixsfsi>
     32e:	cb 01       	movw	r24, r22
     330:	6a e0       	ldi	r22, 0x0A	; 10
     332:	70 e0       	ldi	r23, 0x00	; 0
     334:	b1 d6       	rcall	.+3426   	; 0x1098 <__divmodhi4>
     336:	9f 93       	push	r25
     338:	8f 93       	push	r24
     33a:	20 e0       	ldi	r18, 0x00	; 0
     33c:	30 e0       	ldi	r19, 0x00	; 0
     33e:	40 e2       	ldi	r20, 0x20	; 32
     340:	51 e4       	ldi	r21, 0x41	; 65
     342:	c7 01       	movw	r24, r14
     344:	b6 01       	movw	r22, r12
     346:	9a d3       	rcall	.+1844   	; 0xa7c <__divsf3>
     348:	01 d4       	rcall	.+2050   	; 0xb4c <__fixsfsi>
     34a:	7f 93       	push	r23
     34c:	6f 93       	push	r22
     34e:	2b e1       	ldi	r18, 0x1B	; 27
     350:	32 e0       	ldi	r19, 0x02	; 2
     352:	3f 93       	push	r19
     354:	2f 93       	push	r18
     356:	df 93       	push	r29
     358:	cf 93       	push	r28
     35a:	57 d7       	rcall	.+3758   	; 0x120a <sprintf>
     35c:	8d b7       	in	r24, 0x3d	; 61
     35e:	9e b7       	in	r25, 0x3e	; 62
     360:	08 96       	adiw	r24, 0x08	; 8
     362:	0f b6       	in	r0, 0x3f	; 63
     364:	f8 94       	cli
     366:	9e bf       	out	0x3e, r25	; 62
     368:	0f be       	out	0x3f, r0	; 63
     36a:	8d bf       	out	0x3d, r24	; 61
     36c:	df 91       	pop	r29
     36e:	cf 91       	pop	r28
     370:	ff 90       	pop	r15
     372:	ef 90       	pop	r14
     374:	df 90       	pop	r13
     376:	cf 90       	pop	r12
     378:	08 95       	ret

0000037a <sensor_to_F>:
     37a:	cf 93       	push	r28
     37c:	df 93       	push	r29
     37e:	ec 01       	movw	r28, r24
     380:	bc 01       	movw	r22, r24
     382:	7f 77       	andi	r23, 0x7F	; 127
     384:	80 e0       	ldi	r24, 0x00	; 0
     386:	90 e0       	ldi	r25, 0x00	; 0
     388:	12 d4       	rcall	.+2084   	; 0xbae <__floatunsisf>
     38a:	20 e0       	ldi	r18, 0x00	; 0
     38c:	30 e0       	ldi	r19, 0x00	; 0
     38e:	40 e2       	ldi	r20, 0x20	; 32
     390:	51 e4       	ldi	r21, 0x41	; 65
     392:	74 d3       	rcall	.+1768   	; 0xa7c <__divsf3>
     394:	26 e6       	ldi	r18, 0x66	; 102
     396:	36 e6       	ldi	r19, 0x66	; 102
     398:	46 ee       	ldi	r20, 0xE6	; 230
     39a:	5f e3       	ldi	r21, 0x3F	; 63
     39c:	be d4       	rcall	.+2428   	; 0xd1a <__mulsf3>
     39e:	20 e0       	ldi	r18, 0x00	; 0
     3a0:	30 e0       	ldi	r19, 0x00	; 0
     3a2:	40 e0       	ldi	r20, 0x00	; 0
     3a4:	52 e4       	ldi	r21, 0x42	; 66
     3a6:	02 d3       	rcall	.+1540   	; 0x9ac <__addsf3>
     3a8:	dd 23       	and	r29, r29
     3aa:	0c f4       	brge	.+2      	; 0x3ae <sensor_to_F+0x34>
     3ac:	90 58       	subi	r25, 0x80	; 128
     3ae:	df 91       	pop	r29
     3b0:	cf 91       	pop	r28
     3b2:	08 95       	ret

000003b4 <polled_wait>:
     3b4:	9f b1       	in	r25, 0x0f	; 15
     3b6:	91 70       	andi	r25, 0x01	; 1
     3b8:	8f b1       	in	r24, 0x0f	; 15
     3ba:	81 70       	andi	r24, 0x01	; 1
     3bc:	89 17       	cp	r24, r25
     3be:	e1 f3       	breq	.-8      	; 0x3b8 <polled_wait+0x4>
     3c0:	08 95       	ret

000003c2 <sensor_read>:
     3c2:	0f 93       	push	r16
     3c4:	1f 93       	push	r17
     3c6:	cf 93       	push	r28
     3c8:	df 93       	push	r29
     3ca:	f8 94       	cli
     3cc:	80 9a       	sbi	0x10, 0	; 16
     3ce:	81 b3       	in	r24, 0x11	; 17
     3d0:	11 ba       	out	0x11, r1	; 17
     3d2:	8f e1       	ldi	r24, 0x1F	; 31
     3d4:	9e e4       	ldi	r25, 0x4E	; 78
     3d6:	01 97       	sbiw	r24, 0x01	; 1
     3d8:	f1 f7       	brne	.-4      	; 0x3d6 <sensor_read+0x14>
     3da:	00 c0       	rjmp	.+0      	; 0x3dc <sensor_read+0x1a>
     3dc:	00 00       	nop
     3de:	80 98       	cbi	0x10, 0	; 16
     3e0:	88 9a       	sbi	0x11, 0	; 17
     3e2:	e8 df       	rcall	.-48     	; 0x3b4 <polled_wait>
     3e4:	e7 df       	rcall	.-50     	; 0x3b4 <polled_wait>
     3e6:	e6 df       	rcall	.-52     	; 0x3b4 <polled_wait>
     3e8:	c0 e1       	ldi	r28, 0x10	; 16
     3ea:	d0 e0       	ldi	r29, 0x00	; 0
     3ec:	e3 df       	rcall	.-58     	; 0x3b4 <polled_wait>
     3ee:	88 e2       	ldi	r24, 0x28	; 40
     3f0:	b8 de       	rcall	.-656    	; 0x162 <delay_usec>
     3f2:	78 9b       	sbis	0x0f, 0	; 15
     3f4:	02 c0       	rjmp	.+4      	; 0x3fa <sensor_read+0x38>
     3f6:	88 e2       	ldi	r24, 0x28	; 40
     3f8:	b4 de       	rcall	.-664    	; 0x162 <delay_usec>
     3fa:	21 97       	sbiw	r28, 0x01	; 1
     3fc:	b9 f7       	brne	.-18     	; 0x3ec <sensor_read+0x2a>
     3fe:	c0 e1       	ldi	r28, 0x10	; 16
     400:	d0 e0       	ldi	r29, 0x00	; 0
     402:	00 e0       	ldi	r16, 0x00	; 0
     404:	10 e0       	ldi	r17, 0x00	; 0
     406:	d6 df       	rcall	.-84     	; 0x3b4 <polled_wait>
     408:	88 e2       	ldi	r24, 0x28	; 40
     40a:	ab de       	rcall	.-682    	; 0x162 <delay_usec>
     40c:	78 9b       	sbis	0x0f, 0	; 15
     40e:	06 c0       	rjmp	.+12     	; 0x41c <__LOCK_REGION_LENGTH__+0x1c>
     410:	00 0f       	add	r16, r16
     412:	11 1f       	adc	r17, r17
     414:	01 60       	ori	r16, 0x01	; 1
     416:	88 e2       	ldi	r24, 0x28	; 40
     418:	a4 de       	rcall	.-696    	; 0x162 <delay_usec>
     41a:	02 c0       	rjmp	.+4      	; 0x420 <__LOCK_REGION_LENGTH__+0x20>
     41c:	00 0f       	add	r16, r16
     41e:	11 1f       	adc	r17, r17
     420:	21 97       	sbiw	r28, 0x01	; 1
     422:	89 f7       	brne	.-30     	; 0x406 <__LOCK_REGION_LENGTH__+0x6>
     424:	0a c0       	rjmp	.+20     	; 0x43a <__LOCK_REGION_LENGTH__+0x3a>
     426:	c6 df       	rcall	.-116    	; 0x3b4 <polled_wait>
     428:	88 e2       	ldi	r24, 0x28	; 40
     42a:	9b de       	rcall	.-714    	; 0x162 <delay_usec>
     42c:	78 9b       	sbis	0x0f, 0	; 15
     42e:	02 c0       	rjmp	.+4      	; 0x434 <__LOCK_REGION_LENGTH__+0x34>
     430:	88 e2       	ldi	r24, 0x28	; 40
     432:	97 de       	rcall	.-722    	; 0x162 <delay_usec>
     434:	21 97       	sbiw	r28, 0x01	; 1
     436:	b9 f7       	brne	.-18     	; 0x426 <__LOCK_REGION_LENGTH__+0x26>
     438:	03 c0       	rjmp	.+6      	; 0x440 <__LOCK_REGION_LENGTH__+0x40>
     43a:	c8 e0       	ldi	r28, 0x08	; 8
     43c:	d0 e0       	ldi	r29, 0x00	; 0
     43e:	f3 cf       	rjmp	.-26     	; 0x426 <__LOCK_REGION_LENGTH__+0x26>
     440:	78 94       	sei
     442:	c8 01       	movw	r24, r16
     444:	df 91       	pop	r29
     446:	cf 91       	pop	r28
     448:	1f 91       	pop	r17
     44a:	0f 91       	pop	r16
     44c:	08 95       	ret

0000044e <serial_setup>:
     44e:	10 92 c0 00 	sts	0x00C0, r1	; 0x8000c0 <__TEXT_REGION_LENGTH__+0x7000c0>
     452:	e1 ec       	ldi	r30, 0xC1	; 193
     454:	f0 e0       	ldi	r31, 0x00	; 0
     456:	10 82       	st	Z, r1
     458:	a2 ec       	ldi	r26, 0xC2	; 194
     45a:	b0 e0       	ldi	r27, 0x00	; 0
     45c:	1c 92       	st	X, r1
     45e:	80 81       	ld	r24, Z
     460:	80 61       	ori	r24, 0x10	; 16
     462:	80 83       	st	Z, r24
     464:	80 81       	ld	r24, Z
     466:	88 60       	ori	r24, 0x08	; 8
     468:	80 83       	st	Z, r24
     46a:	80 81       	ld	r24, Z
     46c:	80 68       	ori	r24, 0x80	; 128
     46e:	80 83       	st	Z, r24
     470:	8c 91       	ld	r24, X
     472:	82 60       	ori	r24, 0x02	; 2
     474:	8c 93       	st	X, r24
     476:	8c 91       	ld	r24, X
     478:	84 60       	ori	r24, 0x04	; 4
     47a:	8c 93       	st	X, r24
     47c:	87 e6       	ldi	r24, 0x67	; 103
     47e:	90 e0       	ldi	r25, 0x00	; 0
     480:	90 93 c5 00 	sts	0x00C5, r25	; 0x8000c5 <__TEXT_REGION_LENGTH__+0x7000c5>
     484:	80 93 c4 00 	sts	0x00C4, r24	; 0x8000c4 <__TEXT_REGION_LENGTH__+0x7000c4>
     488:	08 95       	ret

0000048a <main>:
     48a:	2f ef       	ldi	r18, 0xFF	; 255
     48c:	83 ed       	ldi	r24, 0xD3	; 211
     48e:	90 e3       	ldi	r25, 0x30	; 48
     490:	21 50       	subi	r18, 0x01	; 1
     492:	80 40       	sbci	r24, 0x00	; 0
     494:	90 40       	sbci	r25, 0x00	; 0
     496:	e1 f7       	brne	.-8      	; 0x490 <main+0x6>
     498:	00 c0       	rjmp	.+0      	; 0x49a <main+0x10>
     49a:	00 00       	nop
     49c:	d8 df       	rcall	.-80     	; 0x44e <serial_setup>
     49e:	de d4       	rcall	.+2492   	; 0xe5c <x_init>
     4a0:	41 e0       	ldi	r20, 0x01	; 1
     4a2:	61 ec       	ldi	r22, 0xC1	; 193
     4a4:	73 e0       	ldi	r23, 0x03	; 3
     4a6:	81 e0       	ldi	r24, 0x01	; 1
     4a8:	9b d4       	rcall	.+2358   	; 0xde0 <x_new>
     4aa:	41 e0       	ldi	r20, 0x01	; 1
     4ac:	63 e7       	ldi	r22, 0x73	; 115
     4ae:	72 e0       	ldi	r23, 0x02	; 2
     4b0:	82 e0       	ldi	r24, 0x02	; 2
     4b2:	96 d4       	rcall	.+2348   	; 0xde0 <x_new>
     4b4:	78 94       	sei
     4b6:	7c de       	rcall	.-776    	; 0x1b0 <x_yield>
     4b8:	fe cf       	rjmp	.-4      	; 0x4b6 <main+0x2c>

000004ba <serial_write>:
     4ba:	e0 ec       	ldi	r30, 0xC0	; 192
     4bc:	f0 e0       	ldi	r31, 0x00	; 0
     4be:	90 81       	ld	r25, Z
     4c0:	95 ff       	sbrs	r25, 5
     4c2:	fd cf       	rjmp	.-6      	; 0x4be <serial_write+0x4>
     4c4:	80 93 c6 00 	sts	0x00C6, r24	; 0x8000c6 <__TEXT_REGION_LENGTH__+0x7000c6>
     4c8:	08 95       	ret

000004ca <serial_write_word>:
     4ca:	cf 93       	push	r28
     4cc:	df 93       	push	r29
     4ce:	ec 01       	movw	r28, r24
     4d0:	88 81       	ld	r24, Y
     4d2:	88 23       	and	r24, r24
     4d4:	29 f0       	breq	.+10     	; 0x4e0 <serial_write_word+0x16>
     4d6:	21 96       	adiw	r28, 0x01	; 1
     4d8:	f0 df       	rcall	.-32     	; 0x4ba <serial_write>
     4da:	89 91       	ld	r24, Y+
     4dc:	81 11       	cpse	r24, r1
     4de:	fc cf       	rjmp	.-8      	; 0x4d8 <serial_write_word+0xe>
     4e0:	df 91       	pop	r29
     4e2:	cf 91       	pop	r28
     4e4:	08 95       	ret

000004e6 <terminal_thread>:
     4e6:	cf 93       	push	r28
     4e8:	df 93       	push	r29
     4ea:	cd b7       	in	r28, 0x3d	; 61
     4ec:	de b7       	in	r29, 0x3e	; 62
     4ee:	c2 58       	subi	r28, 0x82	; 130
     4f0:	d1 09       	sbc	r29, r1
     4f2:	0f b6       	in	r0, 0x3f	; 63
     4f4:	f8 94       	cli
     4f6:	de bf       	out	0x3e, r29	; 62
     4f8:	0f be       	out	0x3f, r0	; 63
     4fa:	cd bf       	out	0x3d, r28	; 61
     4fc:	6e 01       	movw	r12, r28
     4fe:	85 e6       	ldi	r24, 0x65	; 101
     500:	c8 0e       	add	r12, r24
     502:	d1 1c       	adc	r13, r1
     504:	99 24       	eor	r9, r9
     506:	93 94       	inc	r9
     508:	0f 2e       	mov	r0, r31
     50a:	fd e4       	ldi	r31, 0x4D	; 77
     50c:	af 2e       	mov	r10, r31
     50e:	f2 e0       	ldi	r31, 0x02	; 2
     510:	bf 2e       	mov	r11, r31
     512:	f0 2d       	mov	r31, r0
     514:	80 91 c0 05 	lds	r24, 0x05C0	; 0x8005c0 <RX_FLAG>
     518:	88 23       	and	r24, r24
     51a:	09 f4       	brne	.+2      	; 0x51e <terminal_thread+0x38>
     51c:	2e c1       	rjmp	.+604    	; 0x77a <terminal_thread+0x294>
     51e:	f8 94       	cli
     520:	69 ec       	ldi	r22, 0xC9	; 201
     522:	75 e0       	ldi	r23, 0x05	; 5
     524:	ce 01       	movw	r24, r28
     526:	01 96       	adiw	r24, 0x01	; 1
     528:	2c d6       	rcall	.+3160   	; 0x1182 <strcpy>
     52a:	ce 01       	movw	r24, r28
     52c:	01 96       	adiw	r24, 0x01	; 1
     52e:	cd df       	rcall	.-102    	; 0x4ca <serial_write_word>
     530:	8d e0       	ldi	r24, 0x0D	; 13
     532:	c3 df       	rcall	.-122    	; 0x4ba <serial_write>
     534:	10 92 c0 05 	sts	0x05C0, r1	; 0x8005c0 <RX_FLAG>
     538:	80 91 c1 05 	lds	r24, 0x05C1	; 0x8005c1 <rx_len>
     53c:	90 91 c2 05 	lds	r25, 0x05C2	; 0x8005c2 <rx_len+0x1>
     540:	18 16       	cp	r1, r24
     542:	19 06       	cpc	r1, r25
     544:	ac f4       	brge	.+42     	; 0x570 <terminal_thread+0x8a>
     546:	fe 01       	movw	r30, r28
     548:	31 96       	adiw	r30, 0x01	; 1
     54a:	7f 01       	movw	r14, r30
     54c:	00 e0       	ldi	r16, 0x00	; 0
     54e:	10 e0       	ldi	r17, 0x00	; 0
     550:	f7 01       	movw	r30, r14
     552:	80 81       	ld	r24, Z
     554:	90 e0       	ldi	r25, 0x00	; 0
     556:	f6 d5       	rcall	.+3052   	; 0x1144 <tolower>
     558:	f7 01       	movw	r30, r14
     55a:	81 93       	st	Z+, r24
     55c:	7f 01       	movw	r14, r30
     55e:	0f 5f       	subi	r16, 0xFF	; 255
     560:	1f 4f       	sbci	r17, 0xFF	; 255
     562:	20 91 c1 05 	lds	r18, 0x05C1	; 0x8005c1 <rx_len>
     566:	30 91 c2 05 	lds	r19, 0x05C2	; 0x8005c2 <rx_len+0x1>
     56a:	02 17       	cp	r16, r18
     56c:	13 07       	cpc	r17, r19
     56e:	84 f3       	brlt	.-32     	; 0x550 <terminal_thread+0x6a>
     570:	43 e0       	ldi	r20, 0x03	; 3
     572:	50 e0       	ldi	r21, 0x00	; 0
     574:	61 e2       	ldi	r22, 0x21	; 33
     576:	72 e0       	ldi	r23, 0x02	; 2
     578:	ce 01       	movw	r24, r28
     57a:	01 96       	adiw	r24, 0x01	; 1
     57c:	09 d6       	rcall	.+3090   	; 0x1190 <strncmp>
     57e:	89 2b       	or	r24, r25
     580:	09 f0       	breq	.+2      	; 0x584 <terminal_thread+0x9e>
     582:	ea c0       	rjmp	.+468    	; 0x758 <terminal_thread+0x272>
     584:	61 e2       	ldi	r22, 0x21	; 33
     586:	72 e0       	ldi	r23, 0x02	; 2
     588:	ce 01       	movw	r24, r28
     58a:	01 96       	adiw	r24, 0x01	; 1
     58c:	f1 d5       	rcall	.+3042   	; 0x1170 <strcmp>
     58e:	89 2b       	or	r24, r25
     590:	09 f0       	breq	.+2      	; 0x594 <terminal_thread+0xae>
     592:	45 c0       	rjmp	.+138    	; 0x61e <terminal_thread+0x138>
     594:	85 e2       	ldi	r24, 0x25	; 37
     596:	92 e0       	ldi	r25, 0x02	; 2
     598:	98 df       	rcall	.-208    	; 0x4ca <serial_write_word>
     59a:	40 91 07 02 	lds	r20, 0x0207	; 0x800207 <TLOW>
     59e:	50 91 08 02 	lds	r21, 0x0208	; 0x800208 <TLOW+0x1>
     5a2:	60 91 09 02 	lds	r22, 0x0209	; 0x800209 <TLOW+0x2>
     5a6:	70 91 0a 02 	lds	r23, 0x020A	; 0x80020a <TLOW+0x3>
     5aa:	ce 01       	movw	r24, r28
     5ac:	82 58       	subi	r24, 0x82	; 130
     5ae:	9f 4f       	sbci	r25, 0xFF	; 255
     5b0:	ac de       	rcall	.-680    	; 0x30a <ftemp_to_string>
     5b2:	ce 01       	movw	r24, r28
     5b4:	82 58       	subi	r24, 0x82	; 130
     5b6:	9f 4f       	sbci	r25, 0xFF	; 255
     5b8:	88 df       	rcall	.-240    	; 0x4ca <serial_write_word>
     5ba:	8d e2       	ldi	r24, 0x2D	; 45
     5bc:	92 e0       	ldi	r25, 0x02	; 2
     5be:	85 df       	rcall	.-246    	; 0x4ca <serial_write_word>
     5c0:	40 91 03 02 	lds	r20, 0x0203	; 0x800203 <THIGH>
     5c4:	50 91 04 02 	lds	r21, 0x0204	; 0x800204 <THIGH+0x1>
     5c8:	60 91 05 02 	lds	r22, 0x0205	; 0x800205 <THIGH+0x2>
     5cc:	70 91 06 02 	lds	r23, 0x0206	; 0x800206 <THIGH+0x3>
     5d0:	ce 01       	movw	r24, r28
     5d2:	82 58       	subi	r24, 0x82	; 130
     5d4:	9f 4f       	sbci	r25, 0xFF	; 255
     5d6:	99 de       	rcall	.-718    	; 0x30a <ftemp_to_string>
     5d8:	ce 01       	movw	r24, r28
     5da:	82 58       	subi	r24, 0x82	; 130
     5dc:	9f 4f       	sbci	r25, 0xFF	; 255
     5de:	75 df       	rcall	.-278    	; 0x4ca <serial_write_word>
     5e0:	80 91 c4 05 	lds	r24, 0x05C4	; 0x8005c4 <HEX>
     5e4:	88 23       	and	r24, r24
     5e6:	21 f0       	breq	.+8      	; 0x5f0 <terminal_thread+0x10a>
     5e8:	88 e3       	ldi	r24, 0x38	; 56
     5ea:	92 e0       	ldi	r25, 0x02	; 2
     5ec:	6e df       	rcall	.-292    	; 0x4ca <serial_write_word>
     5ee:	03 c0       	rjmp	.+6      	; 0x5f6 <terminal_thread+0x110>
     5f0:	82 e4       	ldi	r24, 0x42	; 66
     5f2:	92 e0       	ldi	r25, 0x02	; 2
     5f4:	6a df       	rcall	.-300    	; 0x4ca <serial_write_word>
     5f6:	80 91 01 02 	lds	r24, 0x0201	; 0x800201 <PERIOD>
     5fa:	90 91 02 02 	lds	r25, 0x0202	; 0x800202 <PERIOD+0x1>
     5fe:	9f 93       	push	r25
     600:	8f 93       	push	r24
     602:	bf 92       	push	r11
     604:	af 92       	push	r10
     606:	df 92       	push	r13
     608:	cf 92       	push	r12
     60a:	ff d5       	rcall	.+3070   	; 0x120a <sprintf>
     60c:	c6 01       	movw	r24, r12
     60e:	5d df       	rcall	.-326    	; 0x4ca <serial_write_word>
     610:	0f 90       	pop	r0
     612:	0f 90       	pop	r0
     614:	0f 90       	pop	r0
     616:	0f 90       	pop	r0
     618:	0f 90       	pop	r0
     61a:	0f 90       	pop	r0
     61c:	ad c0       	rjmp	.+346    	; 0x778 <terminal_thread+0x292>
     61e:	62 e6       	ldi	r22, 0x62	; 98
     620:	72 e0       	ldi	r23, 0x02	; 2
     622:	ce 01       	movw	r24, r28
     624:	01 96       	adiw	r24, 0x01	; 1
     626:	a4 d5       	rcall	.+2888   	; 0x1170 <strcmp>
     628:	89 2b       	or	r24, r25
     62a:	19 f4       	brne	.+6      	; 0x632 <terminal_thread+0x14c>
     62c:	90 92 00 02 	sts	0x0200, r9	; 0x800200 <PRINT>
     630:	a3 c0       	rjmp	.+326    	; 0x778 <terminal_thread+0x292>
     632:	69 e6       	ldi	r22, 0x69	; 105
     634:	72 e0       	ldi	r23, 0x02	; 2
     636:	ce 01       	movw	r24, r28
     638:	01 96       	adiw	r24, 0x01	; 1
     63a:	9a d5       	rcall	.+2868   	; 0x1170 <strcmp>
     63c:	89 2b       	or	r24, r25
     63e:	19 f4       	brne	.+6      	; 0x646 <terminal_thread+0x160>
     640:	10 92 00 02 	sts	0x0200, r1	; 0x800200 <PRINT>
     644:	99 c0       	rjmp	.+306    	; 0x778 <terminal_thread+0x292>
     646:	6d e3       	ldi	r22, 0x3D	; 61
     648:	70 e0       	ldi	r23, 0x00	; 0
     64a:	ce 01       	movw	r24, r28
     64c:	01 96       	adiw	r24, 0x01	; 1
     64e:	85 d5       	rcall	.+2826   	; 0x115a <strchr>
     650:	89 2b       	or	r24, r25
     652:	09 f4       	brne	.+2      	; 0x656 <terminal_thread+0x170>
     654:	7d c0       	rjmp	.+250    	; 0x750 <terminal_thread+0x26a>
     656:	8d e3       	ldi	r24, 0x3D	; 61
     658:	90 e0       	ldi	r25, 0x00	; 0
     65a:	f6 01       	movw	r30, r12
     65c:	91 83       	std	Z+1, r25	; 0x01
     65e:	80 83       	st	Z, r24
     660:	b6 01       	movw	r22, r12
     662:	ce 01       	movw	r24, r28
     664:	01 96       	adiw	r24, 0x01	; 1
     666:	76 d5       	rcall	.+2796   	; 0x1154 <strtok>
     668:	8c 01       	movw	r16, r24
     66a:	b6 01       	movw	r22, r12
     66c:	80 e0       	ldi	r24, 0x00	; 0
     66e:	90 e0       	ldi	r25, 0x00	; 0
     670:	71 d5       	rcall	.+2786   	; 0x1154 <strtok>
     672:	7c 01       	movw	r14, r24
     674:	61 e7       	ldi	r22, 0x71	; 113
     676:	72 e0       	ldi	r23, 0x02	; 2
     678:	c8 01       	movw	r24, r16
     67a:	7a d5       	rcall	.+2804   	; 0x1170 <strcmp>
     67c:	89 2b       	or	r24, r25
     67e:	b1 f4       	brne	.+44     	; 0x6ac <terminal_thread+0x1c6>
     680:	66 e6       	ldi	r22, 0x66	; 102
     682:	72 e0       	ldi	r23, 0x02	; 2
     684:	c7 01       	movw	r24, r14
     686:	74 d5       	rcall	.+2792   	; 0x1170 <strcmp>
     688:	89 2b       	or	r24, r25
     68a:	19 f4       	brne	.+6      	; 0x692 <terminal_thread+0x1ac>
     68c:	90 92 c4 05 	sts	0x05C4, r9	; 0x8005c4 <HEX>
     690:	73 c0       	rjmp	.+230    	; 0x778 <terminal_thread+0x292>
     692:	6d e6       	ldi	r22, 0x6D	; 109
     694:	72 e0       	ldi	r23, 0x02	; 2
     696:	c7 01       	movw	r24, r14
     698:	6b d5       	rcall	.+2774   	; 0x1170 <strcmp>
     69a:	89 2b       	or	r24, r25
     69c:	19 f4       	brne	.+6      	; 0x6a4 <terminal_thread+0x1be>
     69e:	10 92 c4 05 	sts	0x05C4, r1	; 0x8005c4 <HEX>
     6a2:	6a c0       	rjmp	.+212    	; 0x778 <terminal_thread+0x292>
     6a4:	89 e7       	ldi	r24, 0x79	; 121
     6a6:	92 e0       	ldi	r25, 0x02	; 2
     6a8:	10 df       	rcall	.-480    	; 0x4ca <serial_write_word>
     6aa:	66 c0       	rjmp	.+204    	; 0x778 <terminal_thread+0x292>
     6ac:	6c e8       	ldi	r22, 0x8C	; 140
     6ae:	72 e0       	ldi	r23, 0x02	; 2
     6b0:	c8 01       	movw	r24, r16
     6b2:	5e d5       	rcall	.+2748   	; 0x1170 <strcmp>
     6b4:	89 2b       	or	r24, r25
     6b6:	b9 f4       	brne	.+46     	; 0x6e6 <terminal_thread+0x200>
     6b8:	c7 01       	movw	r24, r14
     6ba:	24 d5       	rcall	.+2632   	; 0x1104 <atof>
     6bc:	2b 01       	movw	r4, r22
     6be:	3c 01       	movw	r6, r24
     6c0:	20 e0       	ldi	r18, 0x00	; 0
     6c2:	30 e0       	ldi	r19, 0x00	; 0
     6c4:	a9 01       	movw	r20, r18
     6c6:	d6 d1       	rcall	.+940    	; 0xa74 <__cmpsf2>
     6c8:	88 23       	and	r24, r24
     6ca:	49 f0       	breq	.+18     	; 0x6de <terminal_thread+0x1f8>
     6cc:	40 92 07 02 	sts	0x0207, r4	; 0x800207 <TLOW>
     6d0:	50 92 08 02 	sts	0x0208, r5	; 0x800208 <TLOW+0x1>
     6d4:	60 92 09 02 	sts	0x0209, r6	; 0x800209 <TLOW+0x2>
     6d8:	70 92 0a 02 	sts	0x020A, r7	; 0x80020a <TLOW+0x3>
     6dc:	4d c0       	rjmp	.+154    	; 0x778 <terminal_thread+0x292>
     6de:	85 e9       	ldi	r24, 0x95	; 149
     6e0:	92 e0       	ldi	r25, 0x02	; 2
     6e2:	f3 de       	rcall	.-538    	; 0x4ca <serial_write_word>
     6e4:	49 c0       	rjmp	.+146    	; 0x778 <terminal_thread+0x292>
     6e6:	62 eb       	ldi	r22, 0xB2	; 178
     6e8:	72 e0       	ldi	r23, 0x02	; 2
     6ea:	c8 01       	movw	r24, r16
     6ec:	41 d5       	rcall	.+2690   	; 0x1170 <strcmp>
     6ee:	89 2b       	or	r24, r25
     6f0:	b9 f4       	brne	.+46     	; 0x720 <terminal_thread+0x23a>
     6f2:	c7 01       	movw	r24, r14
     6f4:	07 d5       	rcall	.+2574   	; 0x1104 <atof>
     6f6:	2b 01       	movw	r4, r22
     6f8:	3c 01       	movw	r6, r24
     6fa:	20 e0       	ldi	r18, 0x00	; 0
     6fc:	30 e0       	ldi	r19, 0x00	; 0
     6fe:	a9 01       	movw	r20, r18
     700:	b9 d1       	rcall	.+882    	; 0xa74 <__cmpsf2>
     702:	88 23       	and	r24, r24
     704:	49 f0       	breq	.+18     	; 0x718 <terminal_thread+0x232>
     706:	40 92 03 02 	sts	0x0203, r4	; 0x800203 <THIGH>
     70a:	50 92 04 02 	sts	0x0204, r5	; 0x800204 <THIGH+0x1>
     70e:	60 92 05 02 	sts	0x0205, r6	; 0x800205 <THIGH+0x2>
     712:	70 92 06 02 	sts	0x0206, r7	; 0x800206 <THIGH+0x3>
     716:	30 c0       	rjmp	.+96     	; 0x778 <terminal_thread+0x292>
     718:	85 e9       	ldi	r24, 0x95	; 149
     71a:	92 e0       	ldi	r25, 0x02	; 2
     71c:	d6 de       	rcall	.-596    	; 0x4ca <serial_write_word>
     71e:	2c c0       	rjmp	.+88     	; 0x778 <terminal_thread+0x292>
     720:	6c eb       	ldi	r22, 0xBC	; 188
     722:	72 e0       	ldi	r23, 0x02	; 2
     724:	c8 01       	movw	r24, r16
     726:	24 d5       	rcall	.+2632   	; 0x1170 <strcmp>
     728:	89 2b       	or	r24, r25
     72a:	71 f4       	brne	.+28     	; 0x748 <terminal_thread+0x262>
     72c:	c7 01       	movw	r24, r14
     72e:	ed d4       	rcall	.+2522   	; 0x110a <atoi>
     730:	82 30       	cpi	r24, 0x02	; 2
     732:	91 05       	cpc	r25, r1
     734:	2c f0       	brlt	.+10     	; 0x740 <terminal_thread+0x25a>
     736:	90 93 02 02 	sts	0x0202, r25	; 0x800202 <PERIOD+0x1>
     73a:	80 93 01 02 	sts	0x0201, r24	; 0x800201 <PERIOD>
     73e:	1c c0       	rjmp	.+56     	; 0x778 <terminal_thread+0x292>
     740:	87 ec       	ldi	r24, 0xC7	; 199
     742:	92 e0       	ldi	r25, 0x02	; 2
     744:	c2 de       	rcall	.-636    	; 0x4ca <serial_write_word>
     746:	18 c0       	rjmp	.+48     	; 0x778 <terminal_thread+0x292>
     748:	89 e7       	ldi	r24, 0x79	; 121
     74a:	92 e0       	ldi	r25, 0x02	; 2
     74c:	be de       	rcall	.-644    	; 0x4ca <serial_write_word>
     74e:	14 c0       	rjmp	.+40     	; 0x778 <terminal_thread+0x292>
     750:	89 e7       	ldi	r24, 0x79	; 121
     752:	92 e0       	ldi	r25, 0x02	; 2
     754:	ba de       	rcall	.-652    	; 0x4ca <serial_write_word>
     756:	10 c0       	rjmp	.+32     	; 0x778 <terminal_thread+0x292>
     758:	44 e0       	ldi	r20, 0x04	; 4
     75a:	50 e0       	ldi	r21, 0x00	; 0
     75c:	6f ed       	ldi	r22, 0xDF	; 223
     75e:	72 e0       	ldi	r23, 0x02	; 2
     760:	ce 01       	movw	r24, r28
     762:	01 96       	adiw	r24, 0x01	; 1
     764:	15 d5       	rcall	.+2602   	; 0x1190 <strncmp>
     766:	89 2b       	or	r24, r25
     768:	21 f4       	brne	.+8      	; 0x772 <terminal_thread+0x28c>
     76a:	84 ee       	ldi	r24, 0xE4	; 228
     76c:	92 e0       	ldi	r25, 0x02	; 2
     76e:	ad de       	rcall	.-678    	; 0x4ca <serial_write_word>
     770:	03 c0       	rjmp	.+6      	; 0x778 <terminal_thread+0x292>
     772:	89 e7       	ldi	r24, 0x79	; 121
     774:	92 e0       	ldi	r25, 0x02	; 2
     776:	a9 de       	rcall	.-686    	; 0x4ca <serial_write_word>
     778:	78 94       	sei
     77a:	84 e6       	ldi	r24, 0x64	; 100
     77c:	90 e0       	ldi	r25, 0x00	; 0
     77e:	e5 d3       	rcall	.+1994   	; 0xf4a <x_delay>
     780:	c9 ce       	rjmp	.-622    	; 0x514 <terminal_thread+0x2e>

00000782 <sensor_thread>:
     782:	cf 93       	push	r28
     784:	df 93       	push	r29
     786:	cd b7       	in	r28, 0x3d	; 61
     788:	de b7       	in	r29, 0x3e	; 62
     78a:	a4 97       	sbiw	r28, 0x24	; 36
     78c:	0f b6       	in	r0, 0x3f	; 63
     78e:	f8 94       	cli
     790:	de bf       	out	0x3e, r29	; 62
     792:	0f be       	out	0x3f, r0	; 63
     794:	cd bf       	out	0x3d, r28	; 61
     796:	81 9a       	sbi	0x10, 1	; 16
     798:	00 e0       	ldi	r16, 0x00	; 0
     79a:	10 e0       	ldi	r17, 0x00	; 0
     79c:	9e 01       	movw	r18, r28
     79e:	2f 5f       	subi	r18, 0xFF	; 255
     7a0:	3f 4f       	sbci	r19, 0xFF	; 255
     7a2:	79 01       	movw	r14, r18
     7a4:	21 2c       	mov	r2, r1
     7a6:	31 2c       	mov	r3, r1
     7a8:	0c de       	rcall	.-1000   	; 0x3c2 <sensor_read>
     7aa:	98 2e       	mov	r9, r24
     7ac:	89 2e       	mov	r8, r25
     7ae:	e5 dd       	rcall	.-1078   	; 0x37a <sensor_to_F>
     7b0:	2b 01       	movw	r4, r22
     7b2:	3c 01       	movw	r6, r24
     7b4:	76 dd       	rcall	.-1300   	; 0x2a2 <update_lamp>
     7b6:	80 91 00 02 	lds	r24, 0x0200	; 0x800200 <PRINT>
     7ba:	88 23       	and	r24, r24
     7bc:	09 f4       	brne	.+2      	; 0x7c0 <sensor_thread+0x3e>
     7be:	94 c0       	rjmp	.+296    	; 0x8e8 <sensor_thread+0x166>
     7c0:	80 91 01 02 	lds	r24, 0x0201	; 0x800201 <PERIOD>
     7c4:	90 91 02 02 	lds	r25, 0x0202	; 0x800202 <PERIOD+0x1>
     7c8:	08 17       	cp	r16, r24
     7ca:	19 07       	cpc	r17, r25
     7cc:	09 f0       	breq	.+2      	; 0x7d0 <sensor_thread+0x4e>
     7ce:	8c c0       	rjmp	.+280    	; 0x8e8 <sensor_thread+0x166>
     7d0:	80 91 c4 05 	lds	r24, 0x05C4	; 0x8005c4 <HEX>
     7d4:	88 23       	and	r24, r24
     7d6:	09 f4       	brne	.+2      	; 0x7da <sensor_thread+0x58>
     7d8:	40 c0       	rjmp	.+128    	; 0x85a <sensor_thread+0xd8>
     7da:	cd d3       	rcall	.+1946   	; 0xf76 <x_gtime>
     7dc:	a0 90 07 02 	lds	r10, 0x0207	; 0x800207 <TLOW>
     7e0:	b0 90 08 02 	lds	r11, 0x0208	; 0x800208 <TLOW+0x1>
     7e4:	c0 90 09 02 	lds	r12, 0x0209	; 0x800209 <TLOW+0x2>
     7e8:	d0 90 0a 02 	lds	r13, 0x020A	; 0x80020a <TLOW+0x3>
     7ec:	00 91 03 02 	lds	r16, 0x0203	; 0x800203 <THIGH>
     7f0:	10 91 04 02 	lds	r17, 0x0204	; 0x800204 <THIGH+0x1>
     7f4:	20 91 05 02 	lds	r18, 0x0205	; 0x800205 <THIGH+0x2>
     7f8:	30 91 06 02 	lds	r19, 0x0206	; 0x800206 <THIGH+0x3>
     7fc:	4b a2       	std	Y+35, r4	; 0x23
     7fe:	5c a2       	std	Y+36, r5	; 0x24
     800:	6d a2       	std	Y+37, r6	; 0x25
     802:	7e a2       	std	Y+38, r7	; 0x26
     804:	a9 a2       	std	Y+33, r10	; 0x21
     806:	ba a2       	std	Y+34, r11	; 0x22
     808:	cb a2       	std	Y+35, r12	; 0x23
     80a:	dc a2       	std	Y+36, r13	; 0x24
     80c:	0f 8f       	std	Y+31, r16	; 0x1f
     80e:	18 a3       	std	Y+32, r17	; 0x20
     810:	29 a3       	std	Y+33, r18	; 0x21
     812:	3a a3       	std	Y+34, r19	; 0x22
     814:	20 91 c3 05 	lds	r18, 0x05C3	; 0x8005c3 <HEATING>
     818:	1f 92       	push	r1
     81a:	2f 93       	push	r18
     81c:	2a a1       	ldd	r18, Y+34	; 0x22
     81e:	2f 93       	push	r18
     820:	29 a1       	ldd	r18, Y+33	; 0x21
     822:	2f 93       	push	r18
     824:	2c a1       	ldd	r18, Y+36	; 0x24
     826:	2f 93       	push	r18
     828:	2b a1       	ldd	r18, Y+35	; 0x23
     82a:	2f 93       	push	r18
     82c:	8f 92       	push	r8
     82e:	9f 92       	push	r9
     830:	9f 93       	push	r25
     832:	8f 93       	push	r24
     834:	7f 93       	push	r23
     836:	6f 93       	push	r22
     838:	aa e8       	ldi	r26, 0x8A	; 138
     83a:	b5 e0       	ldi	r27, 0x05	; 5
     83c:	bf 93       	push	r27
     83e:	af 93       	push	r26
     840:	ff 92       	push	r15
     842:	ef 92       	push	r14
     844:	e2 d4       	rcall	.+2500   	; 0x120a <sprintf>
     846:	c7 01       	movw	r24, r14
     848:	40 de       	rcall	.-896    	; 0x4ca <serial_write_word>
     84a:	0f b6       	in	r0, 0x3f	; 63
     84c:	f8 94       	cli
     84e:	de bf       	out	0x3e, r29	; 62
     850:	0f be       	out	0x3f, r0	; 63
     852:	cd bf       	out	0x3d, r28	; 61
     854:	02 2d       	mov	r16, r2
     856:	13 2d       	mov	r17, r3
     858:	47 c0       	rjmp	.+142    	; 0x8e8 <sensor_thread+0x166>
     85a:	8d d3       	rcall	.+1818   	; 0xf76 <x_gtime>
     85c:	9f 93       	push	r25
     85e:	8f 93       	push	r24
     860:	7f 93       	push	r23
     862:	6f 93       	push	r22
     864:	ab e9       	ldi	r26, 0x9B	; 155
     866:	b5 e0       	ldi	r27, 0x05	; 5
     868:	bf 93       	push	r27
     86a:	af 93       	push	r26
     86c:	ff 92       	push	r15
     86e:	ef 92       	push	r14
     870:	cc d4       	rcall	.+2456   	; 0x120a <sprintf>
     872:	c7 01       	movw	r24, r14
     874:	2a de       	rcall	.-940    	; 0x4ca <serial_write_word>
     876:	b3 01       	movw	r22, r6
     878:	a2 01       	movw	r20, r4
     87a:	c7 01       	movw	r24, r14
     87c:	46 dd       	rcall	.-1396   	; 0x30a <ftemp_to_string>
     87e:	c7 01       	movw	r24, r14
     880:	24 de       	rcall	.-952    	; 0x4ca <serial_write_word>
     882:	81 ea       	ldi	r24, 0xA1	; 161
     884:	95 e0       	ldi	r25, 0x05	; 5
     886:	21 de       	rcall	.-958    	; 0x4ca <serial_write_word>
     888:	40 91 07 02 	lds	r20, 0x0207	; 0x800207 <TLOW>
     88c:	50 91 08 02 	lds	r21, 0x0208	; 0x800208 <TLOW+0x1>
     890:	60 91 09 02 	lds	r22, 0x0209	; 0x800209 <TLOW+0x2>
     894:	70 91 0a 02 	lds	r23, 0x020A	; 0x80020a <TLOW+0x3>
     898:	c7 01       	movw	r24, r14
     89a:	37 dd       	rcall	.-1426   	; 0x30a <ftemp_to_string>
     89c:	c7 01       	movw	r24, r14
     89e:	15 de       	rcall	.-982    	; 0x4ca <serial_write_word>
     8a0:	81 ea       	ldi	r24, 0xA1	; 161
     8a2:	95 e0       	ldi	r25, 0x05	; 5
     8a4:	12 de       	rcall	.-988    	; 0x4ca <serial_write_word>
     8a6:	40 91 03 02 	lds	r20, 0x0203	; 0x800203 <THIGH>
     8aa:	50 91 04 02 	lds	r21, 0x0204	; 0x800204 <THIGH+0x1>
     8ae:	60 91 05 02 	lds	r22, 0x0205	; 0x800205 <THIGH+0x2>
     8b2:	70 91 06 02 	lds	r23, 0x0206	; 0x800206 <THIGH+0x3>
     8b6:	c7 01       	movw	r24, r14
     8b8:	28 dd       	rcall	.-1456   	; 0x30a <ftemp_to_string>
     8ba:	c7 01       	movw	r24, r14
     8bc:	06 de       	rcall	.-1012   	; 0x4ca <serial_write_word>
     8be:	81 ea       	ldi	r24, 0xA1	; 161
     8c0:	95 e0       	ldi	r25, 0x05	; 5
     8c2:	03 de       	rcall	.-1018   	; 0x4ca <serial_write_word>
     8c4:	80 91 c3 05 	lds	r24, 0x05C3	; 0x8005c3 <HEATING>
     8c8:	0f b6       	in	r0, 0x3f	; 63
     8ca:	f8 94       	cli
     8cc:	de bf       	out	0x3e, r29	; 62
     8ce:	0f be       	out	0x3f, r0	; 63
     8d0:	cd bf       	out	0x3d, r28	; 61
     8d2:	88 23       	and	r24, r24
     8d4:	21 f0       	breq	.+8      	; 0x8de <sensor_thread+0x15c>
     8d6:	84 ea       	ldi	r24, 0xA4	; 164
     8d8:	95 e0       	ldi	r25, 0x05	; 5
     8da:	f7 dd       	rcall	.-1042   	; 0x4ca <serial_write_word>
     8dc:	03 c0       	rjmp	.+6      	; 0x8e4 <sensor_thread+0x162>
     8de:	8f ea       	ldi	r24, 0xAF	; 175
     8e0:	95 e0       	ldi	r25, 0x05	; 5
     8e2:	f3 dd       	rcall	.-1050   	; 0x4ca <serial_write_word>
     8e4:	02 2d       	mov	r16, r2
     8e6:	13 2d       	mov	r17, r3
     8e8:	0f 5f       	subi	r16, 0xFF	; 255
     8ea:	1f 4f       	sbci	r17, 0xFF	; 255
     8ec:	88 ee       	ldi	r24, 0xE8	; 232
     8ee:	93 e0       	ldi	r25, 0x03	; 3
     8f0:	2c d3       	rcall	.+1624   	; 0xf4a <x_delay>
     8f2:	5a cf       	rjmp	.-332    	; 0x7a8 <sensor_thread+0x26>

000008f4 <__vector_25>:

ISR(USART0_RX_vect) {
     8f4:	1f 92       	push	r1
     8f6:	0f 92       	push	r0
     8f8:	0f b6       	in	r0, 0x3f	; 63
     8fa:	0f 92       	push	r0
     8fc:	11 24       	eor	r1, r1
     8fe:	0b b6       	in	r0, 0x3b	; 59
     900:	0f 92       	push	r0
     902:	8f 93       	push	r24
     904:	9f 93       	push	r25
     906:	ef 93       	push	r30
     908:	ff 93       	push	r31
	rx_word[rx_i] = UDR0;
     90a:	e0 91 be 05 	lds	r30, 0x05BE	; 0x8005be <rx_i>
     90e:	f0 91 bf 05 	lds	r31, 0x05BF	; 0x8005bf <rx_i+0x1>
     912:	80 91 c6 00 	lds	r24, 0x00C6	; 0x8000c6 <__TEXT_REGION_LENGTH__+0x7000c6>
     916:	e7 53       	subi	r30, 0x37	; 55
     918:	fa 4f       	sbci	r31, 0xFA	; 250
     91a:	80 83       	st	Z, r24

	if(rx_word[rx_i] == 0x0A || rx_word[rx_i] == 0x0D || rx_word[rx_i] == '\0') {
     91c:	e0 91 be 05 	lds	r30, 0x05BE	; 0x8005be <rx_i>
     920:	f0 91 bf 05 	lds	r31, 0x05BF	; 0x8005bf <rx_i+0x1>
     924:	e7 53       	subi	r30, 0x37	; 55
     926:	fa 4f       	sbci	r31, 0xFA	; 250
     928:	80 81       	ld	r24, Z
     92a:	8a 30       	cpi	r24, 0x0A	; 10
     92c:	91 f0       	breq	.+36     	; 0x952 <__vector_25+0x5e>
     92e:	e0 91 be 05 	lds	r30, 0x05BE	; 0x8005be <rx_i>
     932:	f0 91 bf 05 	lds	r31, 0x05BF	; 0x8005bf <rx_i+0x1>
     936:	e7 53       	subi	r30, 0x37	; 55
     938:	fa 4f       	sbci	r31, 0xFA	; 250
     93a:	80 81       	ld	r24, Z
     93c:	8d 30       	cpi	r24, 0x0D	; 13
     93e:	49 f0       	breq	.+18     	; 0x952 <__vector_25+0x5e>
     940:	e0 91 be 05 	lds	r30, 0x05BE	; 0x8005be <rx_i>
     944:	f0 91 bf 05 	lds	r31, 0x05BF	; 0x8005bf <rx_i+0x1>
     948:	e7 53       	subi	r30, 0x37	; 55
     94a:	fa 4f       	sbci	r31, 0xFA	; 250
     94c:	80 81       	ld	r24, Z
     94e:	81 11       	cpse	r24, r1
     950:	18 c0       	rjmp	.+48     	; 0x982 <__vector_25+0x8e>
		rx_word[rx_i] = '\0';
     952:	e0 91 be 05 	lds	r30, 0x05BE	; 0x8005be <rx_i>
     956:	f0 91 bf 05 	lds	r31, 0x05BF	; 0x8005bf <rx_i+0x1>
     95a:	e7 53       	subi	r30, 0x37	; 55
     95c:	fa 4f       	sbci	r31, 0xFA	; 250
     95e:	10 82       	st	Z, r1
		RX_FLAG = true;
     960:	81 e0       	ldi	r24, 0x01	; 1
     962:	80 93 c0 05 	sts	0x05C0, r24	; 0x8005c0 <RX_FLAG>
		rx_len = rx_i-1;
     966:	80 91 be 05 	lds	r24, 0x05BE	; 0x8005be <rx_i>
     96a:	90 91 bf 05 	lds	r25, 0x05BF	; 0x8005bf <rx_i+0x1>
     96e:	01 97       	sbiw	r24, 0x01	; 1
     970:	90 93 c2 05 	sts	0x05C2, r25	; 0x8005c2 <rx_len+0x1>
     974:	80 93 c1 05 	sts	0x05C1, r24	; 0x8005c1 <rx_len>
		rx_i = 0;
     978:	10 92 bf 05 	sts	0x05BF, r1	; 0x8005bf <rx_i+0x1>
     97c:	10 92 be 05 	sts	0x05BE, r1	; 0x8005be <rx_i>
     980:	09 c0       	rjmp	.+18     	; 0x994 <__vector_25+0xa0>
	} else 
		rx_i++;
     982:	80 91 be 05 	lds	r24, 0x05BE	; 0x8005be <rx_i>
     986:	90 91 bf 05 	lds	r25, 0x05BF	; 0x8005bf <rx_i+0x1>
     98a:	01 96       	adiw	r24, 0x01	; 1
     98c:	90 93 bf 05 	sts	0x05BF, r25	; 0x8005bf <rx_i+0x1>
     990:	80 93 be 05 	sts	0x05BE, r24	; 0x8005be <rx_i>
}
     994:	ff 91       	pop	r31
     996:	ef 91       	pop	r30
     998:	9f 91       	pop	r25
     99a:	8f 91       	pop	r24
     99c:	0f 90       	pop	r0
     99e:	0b be       	out	0x3b, r0	; 59
     9a0:	0f 90       	pop	r0
     9a2:	0f be       	out	0x3f, r0	; 63
     9a4:	0f 90       	pop	r0
     9a6:	1f 90       	pop	r1
     9a8:	18 95       	reti

000009aa <__subsf3>:
     9aa:	50 58       	subi	r21, 0x80	; 128

000009ac <__addsf3>:
     9ac:	bb 27       	eor	r27, r27
     9ae:	aa 27       	eor	r26, r26
     9b0:	0e d0       	rcall	.+28     	; 0x9ce <__addsf3x>
     9b2:	75 c1       	rjmp	.+746    	; 0xc9e <__fp_round>
     9b4:	66 d1       	rcall	.+716    	; 0xc82 <__fp_pscA>
     9b6:	30 f0       	brcs	.+12     	; 0x9c4 <__addsf3+0x18>
     9b8:	6b d1       	rcall	.+726    	; 0xc90 <__fp_pscB>
     9ba:	20 f0       	brcs	.+8      	; 0x9c4 <__addsf3+0x18>
     9bc:	31 f4       	brne	.+12     	; 0x9ca <__addsf3+0x1e>
     9be:	9f 3f       	cpi	r25, 0xFF	; 255
     9c0:	11 f4       	brne	.+4      	; 0x9c6 <__addsf3+0x1a>
     9c2:	1e f4       	brtc	.+6      	; 0x9ca <__addsf3+0x1e>
     9c4:	5b c1       	rjmp	.+694    	; 0xc7c <__fp_nan>
     9c6:	0e f4       	brtc	.+2      	; 0x9ca <__addsf3+0x1e>
     9c8:	e0 95       	com	r30
     9ca:	e7 fb       	bst	r30, 7
     9cc:	51 c1       	rjmp	.+674    	; 0xc70 <__fp_inf>

000009ce <__addsf3x>:
     9ce:	e9 2f       	mov	r30, r25
     9d0:	77 d1       	rcall	.+750    	; 0xcc0 <__fp_split3>
     9d2:	80 f3       	brcs	.-32     	; 0x9b4 <__addsf3+0x8>
     9d4:	ba 17       	cp	r27, r26
     9d6:	62 07       	cpc	r22, r18
     9d8:	73 07       	cpc	r23, r19
     9da:	84 07       	cpc	r24, r20
     9dc:	95 07       	cpc	r25, r21
     9de:	18 f0       	brcs	.+6      	; 0x9e6 <__addsf3x+0x18>
     9e0:	71 f4       	brne	.+28     	; 0x9fe <__addsf3x+0x30>
     9e2:	9e f5       	brtc	.+102    	; 0xa4a <__addsf3x+0x7c>
     9e4:	8f c1       	rjmp	.+798    	; 0xd04 <__fp_zero>
     9e6:	0e f4       	brtc	.+2      	; 0x9ea <__addsf3x+0x1c>
     9e8:	e0 95       	com	r30
     9ea:	0b 2e       	mov	r0, r27
     9ec:	ba 2f       	mov	r27, r26
     9ee:	a0 2d       	mov	r26, r0
     9f0:	0b 01       	movw	r0, r22
     9f2:	b9 01       	movw	r22, r18
     9f4:	90 01       	movw	r18, r0
     9f6:	0c 01       	movw	r0, r24
     9f8:	ca 01       	movw	r24, r20
     9fa:	a0 01       	movw	r20, r0
     9fc:	11 24       	eor	r1, r1
     9fe:	ff 27       	eor	r31, r31
     a00:	59 1b       	sub	r21, r25
     a02:	99 f0       	breq	.+38     	; 0xa2a <__addsf3x+0x5c>
     a04:	59 3f       	cpi	r21, 0xF9	; 249
     a06:	50 f4       	brcc	.+20     	; 0xa1c <__addsf3x+0x4e>
     a08:	50 3e       	cpi	r21, 0xE0	; 224
     a0a:	68 f1       	brcs	.+90     	; 0xa66 <__addsf3x+0x98>
     a0c:	1a 16       	cp	r1, r26
     a0e:	f0 40       	sbci	r31, 0x00	; 0
     a10:	a2 2f       	mov	r26, r18
     a12:	23 2f       	mov	r18, r19
     a14:	34 2f       	mov	r19, r20
     a16:	44 27       	eor	r20, r20
     a18:	58 5f       	subi	r21, 0xF8	; 248
     a1a:	f3 cf       	rjmp	.-26     	; 0xa02 <__addsf3x+0x34>
     a1c:	46 95       	lsr	r20
     a1e:	37 95       	ror	r19
     a20:	27 95       	ror	r18
     a22:	a7 95       	ror	r26
     a24:	f0 40       	sbci	r31, 0x00	; 0
     a26:	53 95       	inc	r21
     a28:	c9 f7       	brne	.-14     	; 0xa1c <__addsf3x+0x4e>
     a2a:	7e f4       	brtc	.+30     	; 0xa4a <__addsf3x+0x7c>
     a2c:	1f 16       	cp	r1, r31
     a2e:	ba 0b       	sbc	r27, r26
     a30:	62 0b       	sbc	r22, r18
     a32:	73 0b       	sbc	r23, r19
     a34:	84 0b       	sbc	r24, r20
     a36:	ba f0       	brmi	.+46     	; 0xa66 <__addsf3x+0x98>
     a38:	91 50       	subi	r25, 0x01	; 1
     a3a:	a1 f0       	breq	.+40     	; 0xa64 <__addsf3x+0x96>
     a3c:	ff 0f       	add	r31, r31
     a3e:	bb 1f       	adc	r27, r27
     a40:	66 1f       	adc	r22, r22
     a42:	77 1f       	adc	r23, r23
     a44:	88 1f       	adc	r24, r24
     a46:	c2 f7       	brpl	.-16     	; 0xa38 <__addsf3x+0x6a>
     a48:	0e c0       	rjmp	.+28     	; 0xa66 <__addsf3x+0x98>
     a4a:	ba 0f       	add	r27, r26
     a4c:	62 1f       	adc	r22, r18
     a4e:	73 1f       	adc	r23, r19
     a50:	84 1f       	adc	r24, r20
     a52:	48 f4       	brcc	.+18     	; 0xa66 <__addsf3x+0x98>
     a54:	87 95       	ror	r24
     a56:	77 95       	ror	r23
     a58:	67 95       	ror	r22
     a5a:	b7 95       	ror	r27
     a5c:	f7 95       	ror	r31
     a5e:	9e 3f       	cpi	r25, 0xFE	; 254
     a60:	08 f0       	brcs	.+2      	; 0xa64 <__addsf3x+0x96>
     a62:	b3 cf       	rjmp	.-154    	; 0x9ca <__addsf3+0x1e>
     a64:	93 95       	inc	r25
     a66:	88 0f       	add	r24, r24
     a68:	08 f0       	brcs	.+2      	; 0xa6c <__addsf3x+0x9e>
     a6a:	99 27       	eor	r25, r25
     a6c:	ee 0f       	add	r30, r30
     a6e:	97 95       	ror	r25
     a70:	87 95       	ror	r24
     a72:	08 95       	ret

00000a74 <__cmpsf2>:
     a74:	d9 d0       	rcall	.+434    	; 0xc28 <__fp_cmp>
     a76:	08 f4       	brcc	.+2      	; 0xa7a <__cmpsf2+0x6>
     a78:	81 e0       	ldi	r24, 0x01	; 1
     a7a:	08 95       	ret

00000a7c <__divsf3>:
     a7c:	0c d0       	rcall	.+24     	; 0xa96 <__divsf3x>
     a7e:	0f c1       	rjmp	.+542    	; 0xc9e <__fp_round>
     a80:	07 d1       	rcall	.+526    	; 0xc90 <__fp_pscB>
     a82:	40 f0       	brcs	.+16     	; 0xa94 <__divsf3+0x18>
     a84:	fe d0       	rcall	.+508    	; 0xc82 <__fp_pscA>
     a86:	30 f0       	brcs	.+12     	; 0xa94 <__divsf3+0x18>
     a88:	21 f4       	brne	.+8      	; 0xa92 <__divsf3+0x16>
     a8a:	5f 3f       	cpi	r21, 0xFF	; 255
     a8c:	19 f0       	breq	.+6      	; 0xa94 <__divsf3+0x18>
     a8e:	f0 c0       	rjmp	.+480    	; 0xc70 <__fp_inf>
     a90:	51 11       	cpse	r21, r1
     a92:	39 c1       	rjmp	.+626    	; 0xd06 <__fp_szero>
     a94:	f3 c0       	rjmp	.+486    	; 0xc7c <__fp_nan>

00000a96 <__divsf3x>:
     a96:	14 d1       	rcall	.+552    	; 0xcc0 <__fp_split3>
     a98:	98 f3       	brcs	.-26     	; 0xa80 <__divsf3+0x4>

00000a9a <__divsf3_pse>:
     a9a:	99 23       	and	r25, r25
     a9c:	c9 f3       	breq	.-14     	; 0xa90 <__divsf3+0x14>
     a9e:	55 23       	and	r21, r21
     aa0:	b1 f3       	breq	.-20     	; 0xa8e <__divsf3+0x12>
     aa2:	95 1b       	sub	r25, r21
     aa4:	55 0b       	sbc	r21, r21
     aa6:	bb 27       	eor	r27, r27
     aa8:	aa 27       	eor	r26, r26
     aaa:	62 17       	cp	r22, r18
     aac:	73 07       	cpc	r23, r19
     aae:	84 07       	cpc	r24, r20
     ab0:	38 f0       	brcs	.+14     	; 0xac0 <__divsf3_pse+0x26>
     ab2:	9f 5f       	subi	r25, 0xFF	; 255
     ab4:	5f 4f       	sbci	r21, 0xFF	; 255
     ab6:	22 0f       	add	r18, r18
     ab8:	33 1f       	adc	r19, r19
     aba:	44 1f       	adc	r20, r20
     abc:	aa 1f       	adc	r26, r26
     abe:	a9 f3       	breq	.-22     	; 0xaaa <__divsf3_pse+0x10>
     ac0:	33 d0       	rcall	.+102    	; 0xb28 <__divsf3_pse+0x8e>
     ac2:	0e 2e       	mov	r0, r30
     ac4:	3a f0       	brmi	.+14     	; 0xad4 <__divsf3_pse+0x3a>
     ac6:	e0 e8       	ldi	r30, 0x80	; 128
     ac8:	30 d0       	rcall	.+96     	; 0xb2a <__divsf3_pse+0x90>
     aca:	91 50       	subi	r25, 0x01	; 1
     acc:	50 40       	sbci	r21, 0x00	; 0
     ace:	e6 95       	lsr	r30
     ad0:	00 1c       	adc	r0, r0
     ad2:	ca f7       	brpl	.-14     	; 0xac6 <__divsf3_pse+0x2c>
     ad4:	29 d0       	rcall	.+82     	; 0xb28 <__divsf3_pse+0x8e>
     ad6:	fe 2f       	mov	r31, r30
     ad8:	27 d0       	rcall	.+78     	; 0xb28 <__divsf3_pse+0x8e>
     ada:	66 0f       	add	r22, r22
     adc:	77 1f       	adc	r23, r23
     ade:	88 1f       	adc	r24, r24
     ae0:	bb 1f       	adc	r27, r27
     ae2:	26 17       	cp	r18, r22
     ae4:	37 07       	cpc	r19, r23
     ae6:	48 07       	cpc	r20, r24
     ae8:	ab 07       	cpc	r26, r27
     aea:	b0 e8       	ldi	r27, 0x80	; 128
     aec:	09 f0       	breq	.+2      	; 0xaf0 <__divsf3_pse+0x56>
     aee:	bb 0b       	sbc	r27, r27
     af0:	80 2d       	mov	r24, r0
     af2:	bf 01       	movw	r22, r30
     af4:	ff 27       	eor	r31, r31
     af6:	93 58       	subi	r25, 0x83	; 131
     af8:	5f 4f       	sbci	r21, 0xFF	; 255
     afa:	2a f0       	brmi	.+10     	; 0xb06 <__divsf3_pse+0x6c>
     afc:	9e 3f       	cpi	r25, 0xFE	; 254
     afe:	51 05       	cpc	r21, r1
     b00:	68 f0       	brcs	.+26     	; 0xb1c <__divsf3_pse+0x82>
     b02:	b6 c0       	rjmp	.+364    	; 0xc70 <__fp_inf>
     b04:	00 c1       	rjmp	.+512    	; 0xd06 <__fp_szero>
     b06:	5f 3f       	cpi	r21, 0xFF	; 255
     b08:	ec f3       	brlt	.-6      	; 0xb04 <__divsf3_pse+0x6a>
     b0a:	98 3e       	cpi	r25, 0xE8	; 232
     b0c:	dc f3       	brlt	.-10     	; 0xb04 <__divsf3_pse+0x6a>
     b0e:	86 95       	lsr	r24
     b10:	77 95       	ror	r23
     b12:	67 95       	ror	r22
     b14:	b7 95       	ror	r27
     b16:	f7 95       	ror	r31
     b18:	9f 5f       	subi	r25, 0xFF	; 255
     b1a:	c9 f7       	brne	.-14     	; 0xb0e <__divsf3_pse+0x74>
     b1c:	88 0f       	add	r24, r24
     b1e:	91 1d       	adc	r25, r1
     b20:	96 95       	lsr	r25
     b22:	87 95       	ror	r24
     b24:	97 f9       	bld	r25, 7
     b26:	08 95       	ret
     b28:	e1 e0       	ldi	r30, 0x01	; 1
     b2a:	66 0f       	add	r22, r22
     b2c:	77 1f       	adc	r23, r23
     b2e:	88 1f       	adc	r24, r24
     b30:	bb 1f       	adc	r27, r27
     b32:	62 17       	cp	r22, r18
     b34:	73 07       	cpc	r23, r19
     b36:	84 07       	cpc	r24, r20
     b38:	ba 07       	cpc	r27, r26
     b3a:	20 f0       	brcs	.+8      	; 0xb44 <__divsf3_pse+0xaa>
     b3c:	62 1b       	sub	r22, r18
     b3e:	73 0b       	sbc	r23, r19
     b40:	84 0b       	sbc	r24, r20
     b42:	ba 0b       	sbc	r27, r26
     b44:	ee 1f       	adc	r30, r30
     b46:	88 f7       	brcc	.-30     	; 0xb2a <__divsf3_pse+0x90>
     b48:	e0 95       	com	r30
     b4a:	08 95       	ret

00000b4c <__fixsfsi>:
     b4c:	04 d0       	rcall	.+8      	; 0xb56 <__fixunssfsi>
     b4e:	68 94       	set
     b50:	b1 11       	cpse	r27, r1
     b52:	d9 c0       	rjmp	.+434    	; 0xd06 <__fp_szero>
     b54:	08 95       	ret

00000b56 <__fixunssfsi>:
     b56:	bc d0       	rcall	.+376    	; 0xcd0 <__fp_splitA>
     b58:	88 f0       	brcs	.+34     	; 0xb7c <__fixunssfsi+0x26>
     b5a:	9f 57       	subi	r25, 0x7F	; 127
     b5c:	90 f0       	brcs	.+36     	; 0xb82 <__fixunssfsi+0x2c>
     b5e:	b9 2f       	mov	r27, r25
     b60:	99 27       	eor	r25, r25
     b62:	b7 51       	subi	r27, 0x17	; 23
     b64:	a0 f0       	brcs	.+40     	; 0xb8e <__fixunssfsi+0x38>
     b66:	d1 f0       	breq	.+52     	; 0xb9c <__fixunssfsi+0x46>
     b68:	66 0f       	add	r22, r22
     b6a:	77 1f       	adc	r23, r23
     b6c:	88 1f       	adc	r24, r24
     b6e:	99 1f       	adc	r25, r25
     b70:	1a f0       	brmi	.+6      	; 0xb78 <__fixunssfsi+0x22>
     b72:	ba 95       	dec	r27
     b74:	c9 f7       	brne	.-14     	; 0xb68 <__fixunssfsi+0x12>
     b76:	12 c0       	rjmp	.+36     	; 0xb9c <__fixunssfsi+0x46>
     b78:	b1 30       	cpi	r27, 0x01	; 1
     b7a:	81 f0       	breq	.+32     	; 0xb9c <__fixunssfsi+0x46>
     b7c:	c3 d0       	rcall	.+390    	; 0xd04 <__fp_zero>
     b7e:	b1 e0       	ldi	r27, 0x01	; 1
     b80:	08 95       	ret
     b82:	c0 c0       	rjmp	.+384    	; 0xd04 <__fp_zero>
     b84:	67 2f       	mov	r22, r23
     b86:	78 2f       	mov	r23, r24
     b88:	88 27       	eor	r24, r24
     b8a:	b8 5f       	subi	r27, 0xF8	; 248
     b8c:	39 f0       	breq	.+14     	; 0xb9c <__fixunssfsi+0x46>
     b8e:	b9 3f       	cpi	r27, 0xF9	; 249
     b90:	cc f3       	brlt	.-14     	; 0xb84 <__fixunssfsi+0x2e>
     b92:	86 95       	lsr	r24
     b94:	77 95       	ror	r23
     b96:	67 95       	ror	r22
     b98:	b3 95       	inc	r27
     b9a:	d9 f7       	brne	.-10     	; 0xb92 <__fixunssfsi+0x3c>
     b9c:	3e f4       	brtc	.+14     	; 0xbac <__fixunssfsi+0x56>
     b9e:	90 95       	com	r25
     ba0:	80 95       	com	r24
     ba2:	70 95       	com	r23
     ba4:	61 95       	neg	r22
     ba6:	7f 4f       	sbci	r23, 0xFF	; 255
     ba8:	8f 4f       	sbci	r24, 0xFF	; 255
     baa:	9f 4f       	sbci	r25, 0xFF	; 255
     bac:	08 95       	ret

00000bae <__floatunsisf>:
     bae:	e8 94       	clt
     bb0:	09 c0       	rjmp	.+18     	; 0xbc4 <__floatsisf+0x12>

00000bb2 <__floatsisf>:
     bb2:	97 fb       	bst	r25, 7
     bb4:	3e f4       	brtc	.+14     	; 0xbc4 <__floatsisf+0x12>
     bb6:	90 95       	com	r25
     bb8:	80 95       	com	r24
     bba:	70 95       	com	r23
     bbc:	61 95       	neg	r22
     bbe:	7f 4f       	sbci	r23, 0xFF	; 255
     bc0:	8f 4f       	sbci	r24, 0xFF	; 255
     bc2:	9f 4f       	sbci	r25, 0xFF	; 255
     bc4:	99 23       	and	r25, r25
     bc6:	a9 f0       	breq	.+42     	; 0xbf2 <__floatsisf+0x40>
     bc8:	f9 2f       	mov	r31, r25
     bca:	96 e9       	ldi	r25, 0x96	; 150
     bcc:	bb 27       	eor	r27, r27
     bce:	93 95       	inc	r25
     bd0:	f6 95       	lsr	r31
     bd2:	87 95       	ror	r24
     bd4:	77 95       	ror	r23
     bd6:	67 95       	ror	r22
     bd8:	b7 95       	ror	r27
     bda:	f1 11       	cpse	r31, r1
     bdc:	f8 cf       	rjmp	.-16     	; 0xbce <__floatsisf+0x1c>
     bde:	fa f4       	brpl	.+62     	; 0xc1e <__floatsisf+0x6c>
     be0:	bb 0f       	add	r27, r27
     be2:	11 f4       	brne	.+4      	; 0xbe8 <__floatsisf+0x36>
     be4:	60 ff       	sbrs	r22, 0
     be6:	1b c0       	rjmp	.+54     	; 0xc1e <__floatsisf+0x6c>
     be8:	6f 5f       	subi	r22, 0xFF	; 255
     bea:	7f 4f       	sbci	r23, 0xFF	; 255
     bec:	8f 4f       	sbci	r24, 0xFF	; 255
     bee:	9f 4f       	sbci	r25, 0xFF	; 255
     bf0:	16 c0       	rjmp	.+44     	; 0xc1e <__floatsisf+0x6c>
     bf2:	88 23       	and	r24, r24
     bf4:	11 f0       	breq	.+4      	; 0xbfa <__floatsisf+0x48>
     bf6:	96 e9       	ldi	r25, 0x96	; 150
     bf8:	11 c0       	rjmp	.+34     	; 0xc1c <__floatsisf+0x6a>
     bfa:	77 23       	and	r23, r23
     bfc:	21 f0       	breq	.+8      	; 0xc06 <__floatsisf+0x54>
     bfe:	9e e8       	ldi	r25, 0x8E	; 142
     c00:	87 2f       	mov	r24, r23
     c02:	76 2f       	mov	r23, r22
     c04:	05 c0       	rjmp	.+10     	; 0xc10 <__floatsisf+0x5e>
     c06:	66 23       	and	r22, r22
     c08:	71 f0       	breq	.+28     	; 0xc26 <__floatsisf+0x74>
     c0a:	96 e8       	ldi	r25, 0x86	; 134
     c0c:	86 2f       	mov	r24, r22
     c0e:	70 e0       	ldi	r23, 0x00	; 0
     c10:	60 e0       	ldi	r22, 0x00	; 0
     c12:	2a f0       	brmi	.+10     	; 0xc1e <__floatsisf+0x6c>
     c14:	9a 95       	dec	r25
     c16:	66 0f       	add	r22, r22
     c18:	77 1f       	adc	r23, r23
     c1a:	88 1f       	adc	r24, r24
     c1c:	da f7       	brpl	.-10     	; 0xc14 <__floatsisf+0x62>
     c1e:	88 0f       	add	r24, r24
     c20:	96 95       	lsr	r25
     c22:	87 95       	ror	r24
     c24:	97 f9       	bld	r25, 7
     c26:	08 95       	ret

00000c28 <__fp_cmp>:
     c28:	99 0f       	add	r25, r25
     c2a:	00 08       	sbc	r0, r0
     c2c:	55 0f       	add	r21, r21
     c2e:	aa 0b       	sbc	r26, r26
     c30:	e0 e8       	ldi	r30, 0x80	; 128
     c32:	fe ef       	ldi	r31, 0xFE	; 254
     c34:	16 16       	cp	r1, r22
     c36:	17 06       	cpc	r1, r23
     c38:	e8 07       	cpc	r30, r24
     c3a:	f9 07       	cpc	r31, r25
     c3c:	c0 f0       	brcs	.+48     	; 0xc6e <__fp_cmp+0x46>
     c3e:	12 16       	cp	r1, r18
     c40:	13 06       	cpc	r1, r19
     c42:	e4 07       	cpc	r30, r20
     c44:	f5 07       	cpc	r31, r21
     c46:	98 f0       	brcs	.+38     	; 0xc6e <__fp_cmp+0x46>
     c48:	62 1b       	sub	r22, r18
     c4a:	73 0b       	sbc	r23, r19
     c4c:	84 0b       	sbc	r24, r20
     c4e:	95 0b       	sbc	r25, r21
     c50:	39 f4       	brne	.+14     	; 0xc60 <__fp_cmp+0x38>
     c52:	0a 26       	eor	r0, r26
     c54:	61 f0       	breq	.+24     	; 0xc6e <__fp_cmp+0x46>
     c56:	23 2b       	or	r18, r19
     c58:	24 2b       	or	r18, r20
     c5a:	25 2b       	or	r18, r21
     c5c:	21 f4       	brne	.+8      	; 0xc66 <__fp_cmp+0x3e>
     c5e:	08 95       	ret
     c60:	0a 26       	eor	r0, r26
     c62:	09 f4       	brne	.+2      	; 0xc66 <__fp_cmp+0x3e>
     c64:	a1 40       	sbci	r26, 0x01	; 1
     c66:	a6 95       	lsr	r26
     c68:	8f ef       	ldi	r24, 0xFF	; 255
     c6a:	81 1d       	adc	r24, r1
     c6c:	81 1d       	adc	r24, r1
     c6e:	08 95       	ret

00000c70 <__fp_inf>:
     c70:	97 f9       	bld	r25, 7
     c72:	9f 67       	ori	r25, 0x7F	; 127
     c74:	80 e8       	ldi	r24, 0x80	; 128
     c76:	70 e0       	ldi	r23, 0x00	; 0
     c78:	60 e0       	ldi	r22, 0x00	; 0
     c7a:	08 95       	ret

00000c7c <__fp_nan>:
     c7c:	9f ef       	ldi	r25, 0xFF	; 255
     c7e:	80 ec       	ldi	r24, 0xC0	; 192
     c80:	08 95       	ret

00000c82 <__fp_pscA>:
     c82:	00 24       	eor	r0, r0
     c84:	0a 94       	dec	r0
     c86:	16 16       	cp	r1, r22
     c88:	17 06       	cpc	r1, r23
     c8a:	18 06       	cpc	r1, r24
     c8c:	09 06       	cpc	r0, r25
     c8e:	08 95       	ret

00000c90 <__fp_pscB>:
     c90:	00 24       	eor	r0, r0
     c92:	0a 94       	dec	r0
     c94:	12 16       	cp	r1, r18
     c96:	13 06       	cpc	r1, r19
     c98:	14 06       	cpc	r1, r20
     c9a:	05 06       	cpc	r0, r21
     c9c:	08 95       	ret

00000c9e <__fp_round>:
     c9e:	09 2e       	mov	r0, r25
     ca0:	03 94       	inc	r0
     ca2:	00 0c       	add	r0, r0
     ca4:	11 f4       	brne	.+4      	; 0xcaa <__fp_round+0xc>
     ca6:	88 23       	and	r24, r24
     ca8:	52 f0       	brmi	.+20     	; 0xcbe <__fp_round+0x20>
     caa:	bb 0f       	add	r27, r27
     cac:	40 f4       	brcc	.+16     	; 0xcbe <__fp_round+0x20>
     cae:	bf 2b       	or	r27, r31
     cb0:	11 f4       	brne	.+4      	; 0xcb6 <__fp_round+0x18>
     cb2:	60 ff       	sbrs	r22, 0
     cb4:	04 c0       	rjmp	.+8      	; 0xcbe <__fp_round+0x20>
     cb6:	6f 5f       	subi	r22, 0xFF	; 255
     cb8:	7f 4f       	sbci	r23, 0xFF	; 255
     cba:	8f 4f       	sbci	r24, 0xFF	; 255
     cbc:	9f 4f       	sbci	r25, 0xFF	; 255
     cbe:	08 95       	ret

00000cc0 <__fp_split3>:
     cc0:	57 fd       	sbrc	r21, 7
     cc2:	90 58       	subi	r25, 0x80	; 128
     cc4:	44 0f       	add	r20, r20
     cc6:	55 1f       	adc	r21, r21
     cc8:	59 f0       	breq	.+22     	; 0xce0 <__fp_splitA+0x10>
     cca:	5f 3f       	cpi	r21, 0xFF	; 255
     ccc:	71 f0       	breq	.+28     	; 0xcea <__fp_splitA+0x1a>
     cce:	47 95       	ror	r20

00000cd0 <__fp_splitA>:
     cd0:	88 0f       	add	r24, r24
     cd2:	97 fb       	bst	r25, 7
     cd4:	99 1f       	adc	r25, r25
     cd6:	61 f0       	breq	.+24     	; 0xcf0 <__fp_splitA+0x20>
     cd8:	9f 3f       	cpi	r25, 0xFF	; 255
     cda:	79 f0       	breq	.+30     	; 0xcfa <__fp_splitA+0x2a>
     cdc:	87 95       	ror	r24
     cde:	08 95       	ret
     ce0:	12 16       	cp	r1, r18
     ce2:	13 06       	cpc	r1, r19
     ce4:	14 06       	cpc	r1, r20
     ce6:	55 1f       	adc	r21, r21
     ce8:	f2 cf       	rjmp	.-28     	; 0xcce <__fp_split3+0xe>
     cea:	46 95       	lsr	r20
     cec:	f1 df       	rcall	.-30     	; 0xcd0 <__fp_splitA>
     cee:	08 c0       	rjmp	.+16     	; 0xd00 <__fp_splitA+0x30>
     cf0:	16 16       	cp	r1, r22
     cf2:	17 06       	cpc	r1, r23
     cf4:	18 06       	cpc	r1, r24
     cf6:	99 1f       	adc	r25, r25
     cf8:	f1 cf       	rjmp	.-30     	; 0xcdc <__fp_splitA+0xc>
     cfa:	86 95       	lsr	r24
     cfc:	71 05       	cpc	r23, r1
     cfe:	61 05       	cpc	r22, r1
     d00:	08 94       	sec
     d02:	08 95       	ret

00000d04 <__fp_zero>:
     d04:	e8 94       	clt

00000d06 <__fp_szero>:
     d06:	bb 27       	eor	r27, r27
     d08:	66 27       	eor	r22, r22
     d0a:	77 27       	eor	r23, r23
     d0c:	cb 01       	movw	r24, r22
     d0e:	97 f9       	bld	r25, 7
     d10:	08 95       	ret

00000d12 <__gesf2>:
     d12:	8a df       	rcall	.-236    	; 0xc28 <__fp_cmp>
     d14:	08 f4       	brcc	.+2      	; 0xd18 <__gesf2+0x6>
     d16:	8f ef       	ldi	r24, 0xFF	; 255
     d18:	08 95       	ret

00000d1a <__mulsf3>:
     d1a:	0b d0       	rcall	.+22     	; 0xd32 <__mulsf3x>
     d1c:	c0 cf       	rjmp	.-128    	; 0xc9e <__fp_round>
     d1e:	b1 df       	rcall	.-158    	; 0xc82 <__fp_pscA>
     d20:	28 f0       	brcs	.+10     	; 0xd2c <__mulsf3+0x12>
     d22:	b6 df       	rcall	.-148    	; 0xc90 <__fp_pscB>
     d24:	18 f0       	brcs	.+6      	; 0xd2c <__mulsf3+0x12>
     d26:	95 23       	and	r25, r21
     d28:	09 f0       	breq	.+2      	; 0xd2c <__mulsf3+0x12>
     d2a:	a2 cf       	rjmp	.-188    	; 0xc70 <__fp_inf>
     d2c:	a7 cf       	rjmp	.-178    	; 0xc7c <__fp_nan>
     d2e:	11 24       	eor	r1, r1
     d30:	ea cf       	rjmp	.-44     	; 0xd06 <__fp_szero>

00000d32 <__mulsf3x>:
     d32:	c6 df       	rcall	.-116    	; 0xcc0 <__fp_split3>
     d34:	a0 f3       	brcs	.-24     	; 0xd1e <__mulsf3+0x4>

00000d36 <__mulsf3_pse>:
     d36:	95 9f       	mul	r25, r21
     d38:	d1 f3       	breq	.-12     	; 0xd2e <__mulsf3+0x14>
     d3a:	95 0f       	add	r25, r21
     d3c:	50 e0       	ldi	r21, 0x00	; 0
     d3e:	55 1f       	adc	r21, r21
     d40:	62 9f       	mul	r22, r18
     d42:	f0 01       	movw	r30, r0
     d44:	72 9f       	mul	r23, r18
     d46:	bb 27       	eor	r27, r27
     d48:	f0 0d       	add	r31, r0
     d4a:	b1 1d       	adc	r27, r1
     d4c:	63 9f       	mul	r22, r19
     d4e:	aa 27       	eor	r26, r26
     d50:	f0 0d       	add	r31, r0
     d52:	b1 1d       	adc	r27, r1
     d54:	aa 1f       	adc	r26, r26
     d56:	64 9f       	mul	r22, r20
     d58:	66 27       	eor	r22, r22
     d5a:	b0 0d       	add	r27, r0
     d5c:	a1 1d       	adc	r26, r1
     d5e:	66 1f       	adc	r22, r22
     d60:	82 9f       	mul	r24, r18
     d62:	22 27       	eor	r18, r18
     d64:	b0 0d       	add	r27, r0
     d66:	a1 1d       	adc	r26, r1
     d68:	62 1f       	adc	r22, r18
     d6a:	73 9f       	mul	r23, r19
     d6c:	b0 0d       	add	r27, r0
     d6e:	a1 1d       	adc	r26, r1
     d70:	62 1f       	adc	r22, r18
     d72:	83 9f       	mul	r24, r19
     d74:	a0 0d       	add	r26, r0
     d76:	61 1d       	adc	r22, r1
     d78:	22 1f       	adc	r18, r18
     d7a:	74 9f       	mul	r23, r20
     d7c:	33 27       	eor	r19, r19
     d7e:	a0 0d       	add	r26, r0
     d80:	61 1d       	adc	r22, r1
     d82:	23 1f       	adc	r18, r19
     d84:	84 9f       	mul	r24, r20
     d86:	60 0d       	add	r22, r0
     d88:	21 1d       	adc	r18, r1
     d8a:	82 2f       	mov	r24, r18
     d8c:	76 2f       	mov	r23, r22
     d8e:	6a 2f       	mov	r22, r26
     d90:	11 24       	eor	r1, r1
     d92:	9f 57       	subi	r25, 0x7F	; 127
     d94:	50 40       	sbci	r21, 0x00	; 0
     d96:	8a f0       	brmi	.+34     	; 0xdba <__mulsf3_pse+0x84>
     d98:	e1 f0       	breq	.+56     	; 0xdd2 <__mulsf3_pse+0x9c>
     d9a:	88 23       	and	r24, r24
     d9c:	4a f0       	brmi	.+18     	; 0xdb0 <__mulsf3_pse+0x7a>
     d9e:	ee 0f       	add	r30, r30
     da0:	ff 1f       	adc	r31, r31
     da2:	bb 1f       	adc	r27, r27
     da4:	66 1f       	adc	r22, r22
     da6:	77 1f       	adc	r23, r23
     da8:	88 1f       	adc	r24, r24
     daa:	91 50       	subi	r25, 0x01	; 1
     dac:	50 40       	sbci	r21, 0x00	; 0
     dae:	a9 f7       	brne	.-22     	; 0xd9a <__mulsf3_pse+0x64>
     db0:	9e 3f       	cpi	r25, 0xFE	; 254
     db2:	51 05       	cpc	r21, r1
     db4:	70 f0       	brcs	.+28     	; 0xdd2 <__mulsf3_pse+0x9c>
     db6:	5c cf       	rjmp	.-328    	; 0xc70 <__fp_inf>
     db8:	a6 cf       	rjmp	.-180    	; 0xd06 <__fp_szero>
     dba:	5f 3f       	cpi	r21, 0xFF	; 255
     dbc:	ec f3       	brlt	.-6      	; 0xdb8 <__mulsf3_pse+0x82>
     dbe:	98 3e       	cpi	r25, 0xE8	; 232
     dc0:	dc f3       	brlt	.-10     	; 0xdb8 <__mulsf3_pse+0x82>
     dc2:	86 95       	lsr	r24
     dc4:	77 95       	ror	r23
     dc6:	67 95       	ror	r22
     dc8:	b7 95       	ror	r27
     dca:	f7 95       	ror	r31
     dcc:	e7 95       	ror	r30
     dce:	9f 5f       	subi	r25, 0xFF	; 255
     dd0:	c1 f7       	brne	.-16     	; 0xdc2 <__mulsf3_pse+0x8c>
     dd2:	fe 2b       	or	r31, r30
     dd4:	88 0f       	add	r24, r24
     dd6:	91 1d       	adc	r25, r1
     dd8:	96 95       	lsr	r25
     dda:	87 95       	ror	r24
     ddc:	97 f9       	bld	r25, 7
     dde:	08 95       	ret

00000de0 <x_new>:
     de0:	cf 93       	push	r28
     de2:	df 93       	push	r29
     de4:	c8 2f       	mov	r28, r24
     de6:	d4 2f       	mov	r29, r20
     de8:	e8 2f       	mov	r30, r24
     dea:	f0 e0       	ldi	r31, 0x00	; 0
     dec:	ee 0f       	add	r30, r30
     dee:	ff 1f       	adc	r31, r31
     df0:	ee 0f       	add	r30, r30
     df2:	ff 1f       	adc	r31, r31
     df4:	9f 01       	movw	r18, r30
     df6:	21 5d       	subi	r18, 0xD1	; 209
     df8:	39 4f       	sbci	r19, 0xF9	; 249
     dfa:	f9 01       	movw	r30, r18
     dfc:	a2 81       	ldd	r26, Z+2	; 0x02
     dfe:	b3 81       	ldd	r27, Z+3	; 0x03
     e00:	6c 93       	st	X, r22
     e02:	cd 01       	movw	r24, r26
     e04:	01 97       	sbiw	r24, 0x01	; 1
     e06:	fc 01       	movw	r30, r24
     e08:	70 83       	st	Z, r23
     e0a:	01 97       	sbiw	r24, 0x01	; 1
     e0c:	fc 01       	movw	r30, r24
     e0e:	10 82       	st	Z, r1
     e10:	55 97       	sbiw	r26, 0x15	; 21
     e12:	f9 01       	movw	r30, r18
     e14:	b1 83       	std	Z+1, r27	; 0x01
     e16:	a0 83       	st	Z, r26
     e18:	8c 2f       	mov	r24, r28
     e1a:	39 da       	rcall	.-2958   	; 0x28e <bit2mask8>
     e1c:	dd 23       	and	r29, r29
     e1e:	41 f0       	breq	.+16     	; 0xe30 <x_new+0x50>
     e20:	98 2f       	mov	r25, r24
     e22:	90 95       	com	r25
     e24:	80 91 60 0e 	lds	r24, 0x0E60	; 0x800e60 <x_disable_status>
     e28:	98 23       	and	r25, r24
     e2a:	90 93 60 0e 	sts	0x0E60, r25	; 0x800e60 <x_disable_status>
     e2e:	05 c0       	rjmp	.+10     	; 0xe3a <x_new+0x5a>
     e30:	90 91 60 0e 	lds	r25, 0x0E60	; 0x800e60 <x_disable_status>
     e34:	98 2b       	or	r25, r24
     e36:	90 93 60 0e 	sts	0x0E60, r25	; 0x800e60 <x_disable_status>
     e3a:	80 91 2d 06 	lds	r24, 0x062D	; 0x80062d <x_thread_id>
     e3e:	c8 13       	cpse	r28, r24
     e40:	01 c0       	rjmp	.+2      	; 0xe44 <x_new+0x64>
     e42:	e6 d9       	rcall	.-3124   	; 0x210 <x_schedule>
     e44:	df 91       	pop	r29
     e46:	cf 91       	pop	r28
     e48:	08 95       	ret

00000e4a <init_System_Timer>:
     e4a:	82 e0       	ldi	r24, 0x02	; 2
     e4c:	84 bd       	out	0x24, r24	; 36
     e4e:	9a ef       	ldi	r25, 0xFA	; 250
     e50:	97 bd       	out	0x27, r25	; 39
     e52:	80 93 6e 00 	sts	0x006E, r24	; 0x80006e <__TEXT_REGION_LENGTH__+0x70006e>
     e56:	83 e0       	ldi	r24, 0x03	; 3
     e58:	85 bd       	out	0x25, r24	; 37
     e5a:	08 95       	ret

00000e5c <x_init>:
     e5c:	cf 93       	push	r28
     e5e:	df 93       	push	r29
     e60:	f8 94       	cli
     e62:	8e ef       	ldi	r24, 0xFE	; 254
     e64:	80 93 60 0e 	sts	0x0E60, r24	; 0x800e60 <x_disable_status>
     e68:	10 92 4f 06 	sts	0x064F, r1	; 0x80064f <x_suspend_status>
     e6c:	10 92 2e 06 	sts	0x062E, r1	; 0x80062e <x_delay_status>
     e70:	10 92 2d 06 	sts	0x062D, r1	; 0x80062d <x_thread_id>
     e74:	81 e0       	ldi	r24, 0x01	; 1
     e76:	80 93 61 0e 	sts	0x0E61, r24	; 0x800e61 <x_thread_mask>
     e7a:	cf e2       	ldi	r28, 0x2F	; 47
     e7c:	d6 e0       	ldi	r29, 0x06	; 6
     e7e:	8f e4       	ldi	r24, 0x4F	; 79
     e80:	97 e0       	ldi	r25, 0x07	; 7
     e82:	99 83       	std	Y+1, r25	; 0x01
     e84:	88 83       	st	Y, r24
     e86:	9b 83       	std	Y+3, r25	; 0x03
     e88:	8a 83       	std	Y+2, r24	; 0x02
     e8a:	8f e4       	ldi	r24, 0x4F	; 79
     e8c:	98 e0       	ldi	r25, 0x08	; 8
     e8e:	9d 83       	std	Y+5, r25	; 0x05
     e90:	8c 83       	std	Y+4, r24	; 0x04
     e92:	9f 83       	std	Y+7, r25	; 0x07
     e94:	8e 83       	std	Y+6, r24	; 0x06
     e96:	8f e4       	ldi	r24, 0x4F	; 79
     e98:	99 e0       	ldi	r25, 0x09	; 9
     e9a:	99 87       	std	Y+9, r25	; 0x09
     e9c:	88 87       	std	Y+8, r24	; 0x08
     e9e:	9b 87       	std	Y+11, r25	; 0x0b
     ea0:	8a 87       	std	Y+10, r24	; 0x0a
     ea2:	8f e4       	ldi	r24, 0x4F	; 79
     ea4:	9a e0       	ldi	r25, 0x0A	; 10
     ea6:	9d 87       	std	Y+13, r25	; 0x0d
     ea8:	8c 87       	std	Y+12, r24	; 0x0c
     eaa:	9f 87       	std	Y+15, r25	; 0x0f
     eac:	8e 87       	std	Y+14, r24	; 0x0e
     eae:	8f e4       	ldi	r24, 0x4F	; 79
     eb0:	9b e0       	ldi	r25, 0x0B	; 11
     eb2:	99 8b       	std	Y+17, r25	; 0x11
     eb4:	88 8b       	std	Y+16, r24	; 0x10
     eb6:	9b 8b       	std	Y+19, r25	; 0x13
     eb8:	8a 8b       	std	Y+18, r24	; 0x12
     eba:	8f e4       	ldi	r24, 0x4F	; 79
     ebc:	9c e0       	ldi	r25, 0x0C	; 12
     ebe:	9d 8b       	std	Y+21, r25	; 0x15
     ec0:	8c 8b       	std	Y+20, r24	; 0x14
     ec2:	9f 8b       	std	Y+23, r25	; 0x17
     ec4:	8e 8b       	std	Y+22, r24	; 0x16
     ec6:	8f e4       	ldi	r24, 0x4F	; 79
     ec8:	9d e0       	ldi	r25, 0x0D	; 13
     eca:	99 8f       	std	Y+25, r25	; 0x19
     ecc:	88 8f       	std	Y+24, r24	; 0x18
     ece:	9b 8f       	std	Y+27, r25	; 0x1b
     ed0:	8a 8f       	std	Y+26, r24	; 0x1a
     ed2:	8f e4       	ldi	r24, 0x4F	; 79
     ed4:	9e e0       	ldi	r25, 0x0E	; 14
     ed6:	9d 8f       	std	Y+29, r25	; 0x1d
     ed8:	8c 8f       	std	Y+28, r24	; 0x1c
     eda:	9f 8f       	std	Y+31, r25	; 0x1f
     edc:	8e 8f       	std	Y+30, r24	; 0x1e
     ede:	8a ea       	ldi	r24, 0xAA	; 170
     ee0:	80 93 50 06 	sts	0x0650, r24	; 0x800650 <x_thread_stacks>
     ee4:	80 93 50 07 	sts	0x0750, r24	; 0x800750 <x_thread_stacks+0x100>
     ee8:	80 93 50 08 	sts	0x0850, r24	; 0x800850 <x_thread_stacks+0x200>
     eec:	80 93 50 09 	sts	0x0950, r24	; 0x800950 <x_thread_stacks+0x300>
     ef0:	80 93 50 0a 	sts	0x0A50, r24	; 0x800a50 <x_thread_stacks+0x400>
     ef4:	80 93 50 0b 	sts	0x0B50, r24	; 0x800b50 <x_thread_stacks+0x500>
     ef8:	80 93 50 0c 	sts	0x0C50, r24	; 0x800c50 <x_thread_stacks+0x600>
     efc:	80 93 50 0d 	sts	0x0D50, r24	; 0x800d50 <x_thread_stacks+0x700>
     f00:	a4 df       	rcall	.-184    	; 0xe4a <init_System_Timer>
     f02:	ed b7       	in	r30, 0x3d	; 61
     f04:	fe b7       	in	r31, 0x3e	; 62
     f06:	a8 81       	ld	r26, Y
     f08:	b9 81       	ldd	r27, Y+1	; 0x01
     f0a:	85 81       	ldd	r24, Z+5	; 0x05
     f0c:	8c 93       	st	X, r24
     f0e:	a8 81       	ld	r26, Y
     f10:	b9 81       	ldd	r27, Y+1	; 0x01
     f12:	84 81       	ldd	r24, Z+4	; 0x04
     f14:	11 97       	sbiw	r26, 0x01	; 1
     f16:	8c 93       	st	X, r24
     f18:	a8 81       	ld	r26, Y
     f1a:	b9 81       	ldd	r27, Y+1	; 0x01
     f1c:	83 81       	ldd	r24, Z+3	; 0x03
     f1e:	12 97       	sbiw	r26, 0x02	; 2
     f20:	8c 93       	st	X, r24
     f22:	a8 81       	ld	r26, Y
     f24:	b9 81       	ldd	r27, Y+1	; 0x01
     f26:	82 81       	ldd	r24, Z+2	; 0x02
     f28:	13 97       	sbiw	r26, 0x03	; 3
     f2a:	8c 93       	st	X, r24
     f2c:	88 81       	ld	r24, Y
     f2e:	99 81       	ldd	r25, Y+1	; 0x01
     f30:	21 81       	ldd	r18, Z+1	; 0x01
     f32:	fc 01       	movw	r30, r24
     f34:	34 97       	sbiw	r30, 0x04	; 4
     f36:	20 83       	st	Z, r18
     f38:	88 81       	ld	r24, Y
     f3a:	99 81       	ldd	r25, Y+1	; 0x01
     f3c:	05 97       	sbiw	r24, 0x05	; 5
     f3e:	9e bf       	out	0x3e, r25	; 62
     f40:	8d bf       	out	0x3d, r24	; 61
     f42:	78 94       	sei
     f44:	df 91       	pop	r29
     f46:	cf 91       	pop	r28
     f48:	08 95       	ret

00000f4a <x_delay>:
     f4a:	9c 01       	movw	r18, r24
     f4c:	9f b7       	in	r25, 0x3f	; 63
     f4e:	f8 94       	cli
     f50:	e0 91 2d 06 	lds	r30, 0x062D	; 0x80062d <x_thread_id>
     f54:	f0 e0       	ldi	r31, 0x00	; 0
     f56:	ee 0f       	add	r30, r30
     f58:	ff 1f       	adc	r31, r31
     f5a:	e0 5b       	subi	r30, 0xB0	; 176
     f5c:	f1 4f       	sbci	r31, 0xF1	; 241
     f5e:	31 83       	std	Z+1, r19	; 0x01
     f60:	20 83       	st	Z, r18
     f62:	20 91 2e 06 	lds	r18, 0x062E	; 0x80062e <x_delay_status>
     f66:	80 91 61 0e 	lds	r24, 0x0E61	; 0x800e61 <x_thread_mask>
     f6a:	82 2b       	or	r24, r18
     f6c:	80 93 2e 06 	sts	0x062E, r24	; 0x80062e <x_delay_status>
     f70:	9f bf       	out	0x3f, r25	; 63
     f72:	1e c9       	rjmp	.-3524   	; 0x1b0 <x_yield>
     f74:	08 95       	ret

00000f76 <x_gtime>:
     f76:	2f b7       	in	r18, 0x3f	; 63
     f78:	f8 94       	cli
     f7a:	60 91 c5 05 	lds	r22, 0x05C5	; 0x8005c5 <x_system_counter>
     f7e:	70 91 c6 05 	lds	r23, 0x05C6	; 0x8005c6 <x_system_counter+0x1>
     f82:	80 91 c7 05 	lds	r24, 0x05C7	; 0x8005c7 <x_system_counter+0x2>
     f86:	90 91 c8 05 	lds	r25, 0x05C8	; 0x8005c8 <x_system_counter+0x3>
     f8a:	2f bf       	out	0x3f, r18	; 63
     f8c:	08 95       	ret

00000f8e <__vector_21>:
     f8e:	1f 92       	push	r1
     f90:	0f 92       	push	r0
     f92:	0f b6       	in	r0, 0x3f	; 63
     f94:	0f 92       	push	r0
     f96:	11 24       	eor	r1, r1
     f98:	0b b6       	in	r0, 0x3b	; 59
     f9a:	0f 92       	push	r0
     f9c:	2f 93       	push	r18
     f9e:	3f 93       	push	r19
     fa0:	4f 93       	push	r20
     fa2:	5f 93       	push	r21
     fa4:	8f 93       	push	r24
     fa6:	9f 93       	push	r25
     fa8:	af 93       	push	r26
     faa:	bf 93       	push	r27
     fac:	ef 93       	push	r30
     fae:	ff 93       	push	r31
     fb0:	80 91 c5 05 	lds	r24, 0x05C5	; 0x8005c5 <x_system_counter>
     fb4:	90 91 c6 05 	lds	r25, 0x05C6	; 0x8005c6 <x_system_counter+0x1>
     fb8:	a0 91 c7 05 	lds	r26, 0x05C7	; 0x8005c7 <x_system_counter+0x2>
     fbc:	b0 91 c8 05 	lds	r27, 0x05C8	; 0x8005c8 <x_system_counter+0x3>
     fc0:	01 96       	adiw	r24, 0x01	; 1
     fc2:	a1 1d       	adc	r26, r1
     fc4:	b1 1d       	adc	r27, r1
     fc6:	80 93 c5 05 	sts	0x05C5, r24	; 0x8005c5 <x_system_counter>
     fca:	90 93 c6 05 	sts	0x05C6, r25	; 0x8005c6 <x_system_counter+0x1>
     fce:	a0 93 c7 05 	sts	0x05C7, r26	; 0x8005c7 <x_system_counter+0x2>
     fd2:	b0 93 c8 05 	sts	0x05C8, r27	; 0x8005c8 <x_system_counter+0x3>
     fd6:	30 91 2e 06 	lds	r19, 0x062E	; 0x80062e <x_delay_status>
     fda:	e0 e5       	ldi	r30, 0x50	; 80
     fdc:	fe e0       	ldi	r31, 0x0E	; 14
     fde:	40 e6       	ldi	r20, 0x60	; 96
     fe0:	5e e0       	ldi	r21, 0x0E	; 14
     fe2:	21 e0       	ldi	r18, 0x01	; 1
     fe4:	80 81       	ld	r24, Z
     fe6:	91 81       	ldd	r25, Z+1	; 0x01
     fe8:	01 97       	sbiw	r24, 0x01	; 1
     fea:	81 93       	st	Z+, r24
     fec:	91 93       	st	Z+, r25
     fee:	89 2b       	or	r24, r25
     ff0:	19 f4       	brne	.+6      	; 0xff8 <__vector_21+0x6a>
     ff2:	82 2f       	mov	r24, r18
     ff4:	80 95       	com	r24
     ff6:	38 23       	and	r19, r24
     ff8:	22 0f       	add	r18, r18
     ffa:	e4 17       	cp	r30, r20
     ffc:	f5 07       	cpc	r31, r21
     ffe:	91 f7       	brne	.-28     	; 0xfe4 <__vector_21+0x56>
    1000:	30 93 2e 06 	sts	0x062E, r19	; 0x80062e <x_delay_status>
    1004:	ff 91       	pop	r31
    1006:	ef 91       	pop	r30
    1008:	bf 91       	pop	r27
    100a:	af 91       	pop	r26
    100c:	9f 91       	pop	r25
    100e:	8f 91       	pop	r24
    1010:	5f 91       	pop	r21
    1012:	4f 91       	pop	r20
    1014:	3f 91       	pop	r19
    1016:	2f 91       	pop	r18
    1018:	0f 90       	pop	r0
    101a:	0b be       	out	0x3b, r0	; 59
    101c:	0f 90       	pop	r0
    101e:	0f be       	out	0x3f, r0	; 63
    1020:	0f 90       	pop	r0
    1022:	1f 90       	pop	r1
    1024:	18 95       	reti

00001026 <x_stack_overflow>:
    1026:	ac 01       	movw	r20, r24
    1028:	27 9a       	sbi	0x04, 7	; 4
    102a:	2f 98       	cbi	0x05, 7	; 5
   must be defined before including this header file. Also, the
   backward compatible algorithm will be chosen if the code is
   compiled in a <em>freestanding environment</em> (GCC option
   \c -ffreestanding), as the math functions required for rounding are
   not available to the compiler then.

    102c:	2f ef       	ldi	r18, 0xFF	; 255
    102e:	31 ee       	ldi	r19, 0xE1	; 225
    1030:	74 e0       	ldi	r23, 0x04	; 4
    1032:	21 50       	subi	r18, 0x01	; 1
    1034:	30 40       	sbci	r19, 0x00	; 0
    1036:	70 40       	sbci	r23, 0x00	; 0
    1038:	e1 f7       	brne	.-8      	; 0x1032 <x_stack_overflow+0xc>
    103a:	00 c0       	rjmp	.+0      	; 0x103c <x_stack_overflow+0x16>
    103c:	00 00       	nop
    103e:	60 e0       	ldi	r22, 0x00	; 0
    1040:	80 e0       	ldi	r24, 0x00	; 0
    1042:	55 23       	and	r21, r21
    1044:	fc f0       	brlt	.+62     	; 0x1084 <x_stack_overflow+0x5e>
    1046:	26 2f       	mov	r18, r22
    1048:	38 2f       	mov	r19, r24
    104a:	95 b1       	in	r25, 0x05	; 5
    104c:	90 58       	subi	r25, 0x80	; 128
    104e:	95 b9       	out	0x05, r25	; 5
    1050:	9f ef       	ldi	r25, 0xFF	; 255
    1052:	e0 e7       	ldi	r30, 0x70	; 112
    1054:	72 e0       	ldi	r23, 0x02	; 2
    1056:	91 50       	subi	r25, 0x01	; 1
    1058:	e0 40       	sbci	r30, 0x00	; 0
    105a:	70 40       	sbci	r23, 0x00	; 0
    105c:	e1 f7       	brne	.-8      	; 0x1056 <x_stack_overflow+0x30>
    105e:	00 c0       	rjmp	.+0      	; 0x1060 <x_stack_overflow+0x3a>
    1060:	00 00       	nop
    1062:	95 b1       	in	r25, 0x05	; 5
    1064:	90 58       	subi	r25, 0x80	; 128
    1066:	95 b9       	out	0x05, r25	; 5
    1068:	9f ef       	ldi	r25, 0xFF	; 255
    106a:	e9 e6       	ldi	r30, 0x69	; 105
    106c:	78 e1       	ldi	r23, 0x18	; 24
    106e:	91 50       	subi	r25, 0x01	; 1
    1070:	e0 40       	sbci	r30, 0x00	; 0
    1072:	70 40       	sbci	r23, 0x00	; 0
    1074:	e1 f7       	brne	.-8      	; 0x106e <x_stack_overflow+0x48>
    1076:	00 c0       	rjmp	.+0      	; 0x1078 <x_stack_overflow+0x52>
    1078:	00 00       	nop
    107a:	2f 5f       	subi	r18, 0xFF	; 255
    107c:	3f 4f       	sbci	r19, 0xFF	; 255
    107e:	42 17       	cp	r20, r18
    1080:	53 07       	cpc	r21, r19
    1082:	1c f7       	brge	.-58     	; 0x104a <x_stack_overflow+0x24>
    1084:	9f ef       	ldi	r25, 0xFF	; 255
    1086:	e3 e2       	ldi	r30, 0x23	; 35
    1088:	24 ef       	ldi	r18, 0xF4	; 244
    108a:	91 50       	subi	r25, 0x01	; 1
    108c:	e0 40       	sbci	r30, 0x00	; 0
    108e:	20 40       	sbci	r18, 0x00	; 0
    1090:	e1 f7       	brne	.-8      	; 0x108a <x_stack_overflow+0x64>
    1092:	00 c0       	rjmp	.+0      	; 0x1094 <x_stack_overflow+0x6e>
    1094:	00 00       	nop
    1096:	d5 cf       	rjmp	.-86     	; 0x1042 <x_stack_overflow+0x1c>

00001098 <__divmodhi4>:
    1098:	97 fb       	bst	r25, 7
    109a:	07 2e       	mov	r0, r23
    109c:	16 f4       	brtc	.+4      	; 0x10a2 <__divmodhi4+0xa>
    109e:	00 94       	com	r0
    10a0:	06 d0       	rcall	.+12     	; 0x10ae <__divmodhi4_neg1>
    10a2:	77 fd       	sbrc	r23, 7
    10a4:	08 d0       	rcall	.+16     	; 0x10b6 <__divmodhi4_neg2>
    10a6:	1a d0       	rcall	.+52     	; 0x10dc <__udivmodhi4>
    10a8:	07 fc       	sbrc	r0, 7
    10aa:	05 d0       	rcall	.+10     	; 0x10b6 <__divmodhi4_neg2>
    10ac:	3e f4       	brtc	.+14     	; 0x10bc <__divmodhi4_exit>

000010ae <__divmodhi4_neg1>:
    10ae:	90 95       	com	r25
    10b0:	81 95       	neg	r24
    10b2:	9f 4f       	sbci	r25, 0xFF	; 255
    10b4:	08 95       	ret

000010b6 <__divmodhi4_neg2>:
    10b6:	70 95       	com	r23
    10b8:	61 95       	neg	r22
    10ba:	7f 4f       	sbci	r23, 0xFF	; 255

000010bc <__divmodhi4_exit>:
    10bc:	08 95       	ret

000010be <__umulhisi3>:
    10be:	a2 9f       	mul	r26, r18
    10c0:	b0 01       	movw	r22, r0
    10c2:	b3 9f       	mul	r27, r19
    10c4:	c0 01       	movw	r24, r0
    10c6:	a3 9f       	mul	r26, r19
    10c8:	70 0d       	add	r23, r0
    10ca:	81 1d       	adc	r24, r1
    10cc:	11 24       	eor	r1, r1
    10ce:	91 1d       	adc	r25, r1
    10d0:	b2 9f       	mul	r27, r18
    10d2:	70 0d       	add	r23, r0
    10d4:	81 1d       	adc	r24, r1
    10d6:	11 24       	eor	r1, r1
    10d8:	91 1d       	adc	r25, r1
    10da:	08 95       	ret

000010dc <__udivmodhi4>:
    10dc:	aa 1b       	sub	r26, r26
    10de:	bb 1b       	sub	r27, r27
    10e0:	51 e1       	ldi	r21, 0x11	; 17
    10e2:	07 c0       	rjmp	.+14     	; 0x10f2 <__udivmodhi4_ep>

000010e4 <__udivmodhi4_loop>:
    10e4:	aa 1f       	adc	r26, r26
    10e6:	bb 1f       	adc	r27, r27
    10e8:	a6 17       	cp	r26, r22
    10ea:	b7 07       	cpc	r27, r23
    10ec:	10 f0       	brcs	.+4      	; 0x10f2 <__udivmodhi4_ep>
    10ee:	a6 1b       	sub	r26, r22
    10f0:	b7 0b       	sbc	r27, r23

000010f2 <__udivmodhi4_ep>:
    10f2:	88 1f       	adc	r24, r24
    10f4:	99 1f       	adc	r25, r25
    10f6:	5a 95       	dec	r21
    10f8:	a9 f7       	brne	.-22     	; 0x10e4 <__udivmodhi4_loop>
    10fa:	80 95       	com	r24
    10fc:	90 95       	com	r25
    10fe:	bc 01       	movw	r22, r24
    1100:	cd 01       	movw	r24, r26
    1102:	08 95       	ret

00001104 <atof>:
    1104:	66 27       	eor	r22, r22
    1106:	77 27       	eor	r23, r23
    1108:	9d c2       	rjmp	.+1338   	; 0x1644 <strtod>

0000110a <atoi>:
    110a:	fc 01       	movw	r30, r24
    110c:	88 27       	eor	r24, r24
    110e:	99 27       	eor	r25, r25
    1110:	e8 94       	clt
    1112:	21 91       	ld	r18, Z+
    1114:	20 32       	cpi	r18, 0x20	; 32
    1116:	e9 f3       	breq	.-6      	; 0x1112 <atoi+0x8>
    1118:	29 30       	cpi	r18, 0x09	; 9
    111a:	10 f0       	brcs	.+4      	; 0x1120 <atoi+0x16>
    111c:	2e 30       	cpi	r18, 0x0E	; 14
    111e:	c8 f3       	brcs	.-14     	; 0x1112 <atoi+0x8>
    1120:	2b 32       	cpi	r18, 0x2B	; 43
    1122:	39 f0       	breq	.+14     	; 0x1132 <atoi+0x28>
    1124:	2d 32       	cpi	r18, 0x2D	; 45
    1126:	31 f4       	brne	.+12     	; 0x1134 <atoi+0x2a>
    1128:	68 94       	set
    112a:	03 c0       	rjmp	.+6      	; 0x1132 <atoi+0x28>
    112c:	66 d0       	rcall	.+204    	; 0x11fa <__mulhi_const_10>
    112e:	82 0f       	add	r24, r18
    1130:	91 1d       	adc	r25, r1
    1132:	21 91       	ld	r18, Z+
    1134:	20 53       	subi	r18, 0x30	; 48
    1136:	2a 30       	cpi	r18, 0x0A	; 10
    1138:	c8 f3       	brcs	.-14     	; 0x112c <atoi+0x22>
    113a:	1e f4       	brtc	.+6      	; 0x1142 <atoi+0x38>
    113c:	90 95       	com	r25
    113e:	81 95       	neg	r24
    1140:	9f 4f       	sbci	r25, 0xFF	; 255
    1142:	08 95       	ret

00001144 <tolower>:
    1144:	91 11       	cpse	r25, r1
    1146:	08 95       	ret
    1148:	81 54       	subi	r24, 0x41	; 65
    114a:	8a 51       	subi	r24, 0x1A	; 26
    114c:	08 f4       	brcc	.+2      	; 0x1150 <tolower+0xc>
    114e:	80 5e       	subi	r24, 0xE0	; 224
    1150:	85 5a       	subi	r24, 0xA5	; 165
    1152:	08 95       	ret

00001154 <strtok>:
    1154:	4c eb       	ldi	r20, 0xBC	; 188
    1156:	55 e0       	ldi	r21, 0x05	; 5
    1158:	29 c0       	rjmp	.+82     	; 0x11ac <strtok_r>

0000115a <strchr>:
    115a:	fc 01       	movw	r30, r24
    115c:	81 91       	ld	r24, Z+
    115e:	86 17       	cp	r24, r22
    1160:	21 f0       	breq	.+8      	; 0x116a <strchr+0x10>
    1162:	88 23       	and	r24, r24
    1164:	d9 f7       	brne	.-10     	; 0x115c <strchr+0x2>
    1166:	99 27       	eor	r25, r25
    1168:	08 95       	ret
    116a:	31 97       	sbiw	r30, 0x01	; 1
    116c:	cf 01       	movw	r24, r30
    116e:	08 95       	ret

00001170 <strcmp>:
    1170:	fb 01       	movw	r30, r22
    1172:	dc 01       	movw	r26, r24
    1174:	8d 91       	ld	r24, X+
    1176:	01 90       	ld	r0, Z+
    1178:	80 19       	sub	r24, r0
    117a:	01 10       	cpse	r0, r1
    117c:	d9 f3       	breq	.-10     	; 0x1174 <strcmp+0x4>
    117e:	99 0b       	sbc	r25, r25
    1180:	08 95       	ret

00001182 <strcpy>:
    1182:	fb 01       	movw	r30, r22
    1184:	dc 01       	movw	r26, r24
    1186:	01 90       	ld	r0, Z+
    1188:	0d 92       	st	X+, r0
    118a:	00 20       	and	r0, r0
    118c:	e1 f7       	brne	.-8      	; 0x1186 <strcpy+0x4>
    118e:	08 95       	ret

00001190 <strncmp>:
    1190:	fb 01       	movw	r30, r22
    1192:	dc 01       	movw	r26, r24
    1194:	41 50       	subi	r20, 0x01	; 1
    1196:	50 40       	sbci	r21, 0x00	; 0
    1198:	30 f0       	brcs	.+12     	; 0x11a6 <strncmp+0x16>
    119a:	8d 91       	ld	r24, X+
    119c:	01 90       	ld	r0, Z+
    119e:	80 19       	sub	r24, r0
    11a0:	19 f4       	brne	.+6      	; 0x11a8 <strncmp+0x18>
    11a2:	00 20       	and	r0, r0
    11a4:	b9 f7       	brne	.-18     	; 0x1194 <strncmp+0x4>
    11a6:	88 1b       	sub	r24, r24
    11a8:	99 0b       	sbc	r25, r25
    11aa:	08 95       	ret

000011ac <strtok_r>:
    11ac:	fa 01       	movw	r30, r20
    11ae:	a1 91       	ld	r26, Z+
    11b0:	b0 81       	ld	r27, Z
    11b2:	00 97       	sbiw	r24, 0x00	; 0
    11b4:	19 f4       	brne	.+6      	; 0x11bc <strtok_r+0x10>
    11b6:	10 97       	sbiw	r26, 0x00	; 0
    11b8:	e1 f0       	breq	.+56     	; 0x11f2 <strtok_r+0x46>
    11ba:	cd 01       	movw	r24, r26
    11bc:	dc 01       	movw	r26, r24
    11be:	cd 01       	movw	r24, r26
    11c0:	0d 90       	ld	r0, X+
    11c2:	00 20       	and	r0, r0
    11c4:	11 f4       	brne	.+4      	; 0x11ca <strtok_r+0x1e>
    11c6:	c0 01       	movw	r24, r0
    11c8:	13 c0       	rjmp	.+38     	; 0x11f0 <strtok_r+0x44>
    11ca:	fb 01       	movw	r30, r22
    11cc:	21 91       	ld	r18, Z+
    11ce:	22 23       	and	r18, r18
    11d0:	19 f0       	breq	.+6      	; 0x11d8 <strtok_r+0x2c>
    11d2:	20 15       	cp	r18, r0
    11d4:	d9 f7       	brne	.-10     	; 0x11cc <strtok_r+0x20>
    11d6:	f3 cf       	rjmp	.-26     	; 0x11be <strtok_r+0x12>
    11d8:	fb 01       	movw	r30, r22
    11da:	21 91       	ld	r18, Z+
    11dc:	20 15       	cp	r18, r0
    11de:	19 f4       	brne	.+6      	; 0x11e6 <strtok_r+0x3a>
    11e0:	1e 92       	st	-X, r1
    11e2:	11 96       	adiw	r26, 0x01	; 1
    11e4:	06 c0       	rjmp	.+12     	; 0x11f2 <strtok_r+0x46>
    11e6:	22 23       	and	r18, r18
    11e8:	c1 f7       	brne	.-16     	; 0x11da <strtok_r+0x2e>
    11ea:	0d 90       	ld	r0, X+
    11ec:	00 20       	and	r0, r0
    11ee:	a1 f7       	brne	.-24     	; 0x11d8 <strtok_r+0x2c>
    11f0:	d0 01       	movw	r26, r0
    11f2:	fa 01       	movw	r30, r20
    11f4:	a1 93       	st	Z+, r26
    11f6:	b0 83       	st	Z, r27
    11f8:	08 95       	ret

000011fa <__mulhi_const_10>:
    11fa:	7a e0       	ldi	r23, 0x0A	; 10
    11fc:	97 9f       	mul	r25, r23
    11fe:	90 2d       	mov	r25, r0
    1200:	87 9f       	mul	r24, r23
    1202:	80 2d       	mov	r24, r0
    1204:	91 0d       	add	r25, r1
    1206:	11 24       	eor	r1, r1
    1208:	08 95       	ret

0000120a <sprintf>:
    120a:	0f 93       	push	r16
    120c:	1f 93       	push	r17
    120e:	cf 93       	push	r28
    1210:	df 93       	push	r29
    1212:	cd b7       	in	r28, 0x3d	; 61
    1214:	de b7       	in	r29, 0x3e	; 62
    1216:	2e 97       	sbiw	r28, 0x0e	; 14
    1218:	0f b6       	in	r0, 0x3f	; 63
    121a:	f8 94       	cli
    121c:	de bf       	out	0x3e, r29	; 62
    121e:	0f be       	out	0x3f, r0	; 63
    1220:	cd bf       	out	0x3d, r28	; 61
    1222:	0e 89       	ldd	r16, Y+22	; 0x16
    1224:	1f 89       	ldd	r17, Y+23	; 0x17
    1226:	86 e0       	ldi	r24, 0x06	; 6
    1228:	8c 83       	std	Y+4, r24	; 0x04
    122a:	1a 83       	std	Y+2, r17	; 0x02
    122c:	09 83       	std	Y+1, r16	; 0x01
    122e:	8f ef       	ldi	r24, 0xFF	; 255
    1230:	9f e7       	ldi	r25, 0x7F	; 127
    1232:	9e 83       	std	Y+6, r25	; 0x06
    1234:	8d 83       	std	Y+5, r24	; 0x05
    1236:	ae 01       	movw	r20, r28
    1238:	46 5e       	subi	r20, 0xE6	; 230
    123a:	5f 4f       	sbci	r21, 0xFF	; 255
    123c:	68 8d       	ldd	r22, Y+24	; 0x18
    123e:	79 8d       	ldd	r23, Y+25	; 0x19
    1240:	ce 01       	movw	r24, r28
    1242:	01 96       	adiw	r24, 0x01	; 1
    1244:	11 d0       	rcall	.+34     	; 0x1268 <vfprintf>
    1246:	2f 81       	ldd	r18, Y+7	; 0x07
    1248:	38 85       	ldd	r19, Y+8	; 0x08
    124a:	f8 01       	movw	r30, r16
    124c:	e2 0f       	add	r30, r18
    124e:	f3 1f       	adc	r31, r19
    1250:	10 82       	st	Z, r1
    1252:	2e 96       	adiw	r28, 0x0e	; 14
    1254:	0f b6       	in	r0, 0x3f	; 63
    1256:	f8 94       	cli
    1258:	de bf       	out	0x3e, r29	; 62
    125a:	0f be       	out	0x3f, r0	; 63
    125c:	cd bf       	out	0x3d, r28	; 61
    125e:	df 91       	pop	r29
    1260:	cf 91       	pop	r28
    1262:	1f 91       	pop	r17
    1264:	0f 91       	pop	r16
    1266:	08 95       	ret

00001268 <vfprintf>:
    1268:	2f 92       	push	r2
    126a:	3f 92       	push	r3
    126c:	4f 92       	push	r4
    126e:	5f 92       	push	r5
    1270:	6f 92       	push	r6
    1272:	7f 92       	push	r7
    1274:	8f 92       	push	r8
    1276:	9f 92       	push	r9
    1278:	af 92       	push	r10
    127a:	bf 92       	push	r11
    127c:	cf 92       	push	r12
    127e:	df 92       	push	r13
    1280:	ef 92       	push	r14
    1282:	ff 92       	push	r15
    1284:	0f 93       	push	r16
    1286:	1f 93       	push	r17
    1288:	cf 93       	push	r28
    128a:	df 93       	push	r29
    128c:	cd b7       	in	r28, 0x3d	; 61
    128e:	de b7       	in	r29, 0x3e	; 62
    1290:	2c 97       	sbiw	r28, 0x0c	; 12
    1292:	0f b6       	in	r0, 0x3f	; 63
    1294:	f8 94       	cli
    1296:	de bf       	out	0x3e, r29	; 62
    1298:	0f be       	out	0x3f, r0	; 63
    129a:	cd bf       	out	0x3d, r28	; 61
    129c:	7c 01       	movw	r14, r24
    129e:	6b 01       	movw	r12, r22
    12a0:	8a 01       	movw	r16, r20
    12a2:	fc 01       	movw	r30, r24
    12a4:	17 82       	std	Z+7, r1	; 0x07
    12a6:	16 82       	std	Z+6, r1	; 0x06
    12a8:	83 81       	ldd	r24, Z+3	; 0x03
    12aa:	81 ff       	sbrs	r24, 1
    12ac:	b0 c1       	rjmp	.+864    	; 0x160e <vfprintf+0x3a6>
    12ae:	ce 01       	movw	r24, r28
    12b0:	01 96       	adiw	r24, 0x01	; 1
    12b2:	4c 01       	movw	r8, r24
    12b4:	f7 01       	movw	r30, r14
    12b6:	93 81       	ldd	r25, Z+3	; 0x03
    12b8:	f6 01       	movw	r30, r12
    12ba:	93 fd       	sbrc	r25, 3
    12bc:	85 91       	lpm	r24, Z+
    12be:	93 ff       	sbrs	r25, 3
    12c0:	81 91       	ld	r24, Z+
    12c2:	6f 01       	movw	r12, r30
    12c4:	88 23       	and	r24, r24
    12c6:	09 f4       	brne	.+2      	; 0x12ca <vfprintf+0x62>
    12c8:	9e c1       	rjmp	.+828    	; 0x1606 <vfprintf+0x39e>
    12ca:	85 32       	cpi	r24, 0x25	; 37
    12cc:	39 f4       	brne	.+14     	; 0x12dc <vfprintf+0x74>
    12ce:	93 fd       	sbrc	r25, 3
    12d0:	85 91       	lpm	r24, Z+
    12d2:	93 ff       	sbrs	r25, 3
    12d4:	81 91       	ld	r24, Z+
    12d6:	6f 01       	movw	r12, r30
    12d8:	85 32       	cpi	r24, 0x25	; 37
    12da:	21 f4       	brne	.+8      	; 0x12e4 <vfprintf+0x7c>
    12dc:	b7 01       	movw	r22, r14
    12de:	90 e0       	ldi	r25, 0x00	; 0
    12e0:	4d d3       	rcall	.+1690   	; 0x197c <fputc>
    12e2:	e8 cf       	rjmp	.-48     	; 0x12b4 <vfprintf+0x4c>
    12e4:	51 2c       	mov	r5, r1
    12e6:	31 2c       	mov	r3, r1
    12e8:	20 e0       	ldi	r18, 0x00	; 0
    12ea:	20 32       	cpi	r18, 0x20	; 32
    12ec:	a0 f4       	brcc	.+40     	; 0x1316 <vfprintf+0xae>
    12ee:	8b 32       	cpi	r24, 0x2B	; 43
    12f0:	69 f0       	breq	.+26     	; 0x130c <vfprintf+0xa4>
    12f2:	30 f4       	brcc	.+12     	; 0x1300 <vfprintf+0x98>
    12f4:	80 32       	cpi	r24, 0x20	; 32
    12f6:	59 f0       	breq	.+22     	; 0x130e <vfprintf+0xa6>
    12f8:	83 32       	cpi	r24, 0x23	; 35
    12fa:	69 f4       	brne	.+26     	; 0x1316 <vfprintf+0xae>
    12fc:	20 61       	ori	r18, 0x10	; 16
    12fe:	2c c0       	rjmp	.+88     	; 0x1358 <vfprintf+0xf0>
    1300:	8d 32       	cpi	r24, 0x2D	; 45
    1302:	39 f0       	breq	.+14     	; 0x1312 <vfprintf+0xaa>
    1304:	80 33       	cpi	r24, 0x30	; 48
    1306:	39 f4       	brne	.+14     	; 0x1316 <vfprintf+0xae>
    1308:	21 60       	ori	r18, 0x01	; 1
    130a:	26 c0       	rjmp	.+76     	; 0x1358 <vfprintf+0xf0>
    130c:	22 60       	ori	r18, 0x02	; 2
    130e:	24 60       	ori	r18, 0x04	; 4
    1310:	23 c0       	rjmp	.+70     	; 0x1358 <vfprintf+0xf0>
    1312:	28 60       	ori	r18, 0x08	; 8
    1314:	21 c0       	rjmp	.+66     	; 0x1358 <vfprintf+0xf0>
    1316:	27 fd       	sbrc	r18, 7
    1318:	27 c0       	rjmp	.+78     	; 0x1368 <vfprintf+0x100>
    131a:	30 ed       	ldi	r19, 0xD0	; 208
    131c:	38 0f       	add	r19, r24
    131e:	3a 30       	cpi	r19, 0x0A	; 10
    1320:	78 f4       	brcc	.+30     	; 0x1340 <vfprintf+0xd8>
    1322:	26 ff       	sbrs	r18, 6
    1324:	06 c0       	rjmp	.+12     	; 0x1332 <vfprintf+0xca>
    1326:	fa e0       	ldi	r31, 0x0A	; 10
    1328:	5f 9e       	mul	r5, r31
    132a:	30 0d       	add	r19, r0
    132c:	11 24       	eor	r1, r1
    132e:	53 2e       	mov	r5, r19
    1330:	13 c0       	rjmp	.+38     	; 0x1358 <vfprintf+0xf0>
    1332:	8a e0       	ldi	r24, 0x0A	; 10
    1334:	38 9e       	mul	r3, r24
    1336:	30 0d       	add	r19, r0
    1338:	11 24       	eor	r1, r1
    133a:	33 2e       	mov	r3, r19
    133c:	20 62       	ori	r18, 0x20	; 32
    133e:	0c c0       	rjmp	.+24     	; 0x1358 <vfprintf+0xf0>
    1340:	8e 32       	cpi	r24, 0x2E	; 46
    1342:	21 f4       	brne	.+8      	; 0x134c <vfprintf+0xe4>
    1344:	26 fd       	sbrc	r18, 6
    1346:	5f c1       	rjmp	.+702    	; 0x1606 <vfprintf+0x39e>
    1348:	20 64       	ori	r18, 0x40	; 64
    134a:	06 c0       	rjmp	.+12     	; 0x1358 <vfprintf+0xf0>
    134c:	8c 36       	cpi	r24, 0x6C	; 108
    134e:	11 f4       	brne	.+4      	; 0x1354 <vfprintf+0xec>
    1350:	20 68       	ori	r18, 0x80	; 128
    1352:	02 c0       	rjmp	.+4      	; 0x1358 <vfprintf+0xf0>
    1354:	88 36       	cpi	r24, 0x68	; 104
    1356:	41 f4       	brne	.+16     	; 0x1368 <vfprintf+0x100>
    1358:	f6 01       	movw	r30, r12
    135a:	93 fd       	sbrc	r25, 3
    135c:	85 91       	lpm	r24, Z+
    135e:	93 ff       	sbrs	r25, 3
    1360:	81 91       	ld	r24, Z+
    1362:	6f 01       	movw	r12, r30
    1364:	81 11       	cpse	r24, r1
    1366:	c1 cf       	rjmp	.-126    	; 0x12ea <vfprintf+0x82>
    1368:	98 2f       	mov	r25, r24
    136a:	9f 7d       	andi	r25, 0xDF	; 223
    136c:	95 54       	subi	r25, 0x45	; 69
    136e:	93 30       	cpi	r25, 0x03	; 3
    1370:	28 f4       	brcc	.+10     	; 0x137c <vfprintf+0x114>
    1372:	0c 5f       	subi	r16, 0xFC	; 252
    1374:	1f 4f       	sbci	r17, 0xFF	; 255
    1376:	ff e3       	ldi	r31, 0x3F	; 63
    1378:	f9 83       	std	Y+1, r31	; 0x01
    137a:	0d c0       	rjmp	.+26     	; 0x1396 <vfprintf+0x12e>
    137c:	83 36       	cpi	r24, 0x63	; 99
    137e:	31 f0       	breq	.+12     	; 0x138c <vfprintf+0x124>
    1380:	83 37       	cpi	r24, 0x73	; 115
    1382:	71 f0       	breq	.+28     	; 0x13a0 <vfprintf+0x138>
    1384:	83 35       	cpi	r24, 0x53	; 83
    1386:	09 f0       	breq	.+2      	; 0x138a <vfprintf+0x122>
    1388:	57 c0       	rjmp	.+174    	; 0x1438 <vfprintf+0x1d0>
    138a:	21 c0       	rjmp	.+66     	; 0x13ce <vfprintf+0x166>
    138c:	f8 01       	movw	r30, r16
    138e:	80 81       	ld	r24, Z
    1390:	89 83       	std	Y+1, r24	; 0x01
    1392:	0e 5f       	subi	r16, 0xFE	; 254
    1394:	1f 4f       	sbci	r17, 0xFF	; 255
    1396:	44 24       	eor	r4, r4
    1398:	43 94       	inc	r4
    139a:	51 2c       	mov	r5, r1
    139c:	54 01       	movw	r10, r8
    139e:	14 c0       	rjmp	.+40     	; 0x13c8 <vfprintf+0x160>
    13a0:	38 01       	movw	r6, r16
    13a2:	f2 e0       	ldi	r31, 0x02	; 2
    13a4:	6f 0e       	add	r6, r31
    13a6:	71 1c       	adc	r7, r1
    13a8:	f8 01       	movw	r30, r16
    13aa:	a0 80       	ld	r10, Z
    13ac:	b1 80       	ldd	r11, Z+1	; 0x01
    13ae:	26 ff       	sbrs	r18, 6
    13b0:	03 c0       	rjmp	.+6      	; 0x13b8 <vfprintf+0x150>
    13b2:	65 2d       	mov	r22, r5
    13b4:	70 e0       	ldi	r23, 0x00	; 0
    13b6:	02 c0       	rjmp	.+4      	; 0x13bc <vfprintf+0x154>
    13b8:	6f ef       	ldi	r22, 0xFF	; 255
    13ba:	7f ef       	ldi	r23, 0xFF	; 255
    13bc:	c5 01       	movw	r24, r10
    13be:	2c 87       	std	Y+12, r18	; 0x0c
    13c0:	d2 d2       	rcall	.+1444   	; 0x1966 <strnlen>
    13c2:	2c 01       	movw	r4, r24
    13c4:	83 01       	movw	r16, r6
    13c6:	2c 85       	ldd	r18, Y+12	; 0x0c
    13c8:	2f 77       	andi	r18, 0x7F	; 127
    13ca:	22 2e       	mov	r2, r18
    13cc:	16 c0       	rjmp	.+44     	; 0x13fa <vfprintf+0x192>
    13ce:	38 01       	movw	r6, r16
    13d0:	f2 e0       	ldi	r31, 0x02	; 2
    13d2:	6f 0e       	add	r6, r31
    13d4:	71 1c       	adc	r7, r1
    13d6:	f8 01       	movw	r30, r16
    13d8:	a0 80       	ld	r10, Z
    13da:	b1 80       	ldd	r11, Z+1	; 0x01
    13dc:	26 ff       	sbrs	r18, 6
    13de:	03 c0       	rjmp	.+6      	; 0x13e6 <vfprintf+0x17e>
    13e0:	65 2d       	mov	r22, r5
    13e2:	70 e0       	ldi	r23, 0x00	; 0
    13e4:	02 c0       	rjmp	.+4      	; 0x13ea <vfprintf+0x182>
    13e6:	6f ef       	ldi	r22, 0xFF	; 255
    13e8:	7f ef       	ldi	r23, 0xFF	; 255
    13ea:	c5 01       	movw	r24, r10
    13ec:	2c 87       	std	Y+12, r18	; 0x0c
    13ee:	b0 d2       	rcall	.+1376   	; 0x1950 <strnlen_P>
    13f0:	2c 01       	movw	r4, r24
    13f2:	2c 85       	ldd	r18, Y+12	; 0x0c
    13f4:	20 68       	ori	r18, 0x80	; 128
    13f6:	22 2e       	mov	r2, r18
    13f8:	83 01       	movw	r16, r6
    13fa:	23 fc       	sbrc	r2, 3
    13fc:	19 c0       	rjmp	.+50     	; 0x1430 <vfprintf+0x1c8>
    13fe:	83 2d       	mov	r24, r3
    1400:	90 e0       	ldi	r25, 0x00	; 0
    1402:	48 16       	cp	r4, r24
    1404:	59 06       	cpc	r5, r25
    1406:	a0 f4       	brcc	.+40     	; 0x1430 <vfprintf+0x1c8>
    1408:	b7 01       	movw	r22, r14
    140a:	80 e2       	ldi	r24, 0x20	; 32
    140c:	90 e0       	ldi	r25, 0x00	; 0
    140e:	b6 d2       	rcall	.+1388   	; 0x197c <fputc>
    1410:	3a 94       	dec	r3
    1412:	f5 cf       	rjmp	.-22     	; 0x13fe <vfprintf+0x196>
    1414:	f5 01       	movw	r30, r10
    1416:	27 fc       	sbrc	r2, 7
    1418:	85 91       	lpm	r24, Z+
    141a:	27 fe       	sbrs	r2, 7
    141c:	81 91       	ld	r24, Z+
    141e:	5f 01       	movw	r10, r30
    1420:	b7 01       	movw	r22, r14
    1422:	90 e0       	ldi	r25, 0x00	; 0
    1424:	ab d2       	rcall	.+1366   	; 0x197c <fputc>
    1426:	31 10       	cpse	r3, r1
    1428:	3a 94       	dec	r3
    142a:	f1 e0       	ldi	r31, 0x01	; 1
    142c:	4f 1a       	sub	r4, r31
    142e:	51 08       	sbc	r5, r1
    1430:	41 14       	cp	r4, r1
    1432:	51 04       	cpc	r5, r1
    1434:	79 f7       	brne	.-34     	; 0x1414 <vfprintf+0x1ac>
    1436:	de c0       	rjmp	.+444    	; 0x15f4 <vfprintf+0x38c>
    1438:	84 36       	cpi	r24, 0x64	; 100
    143a:	11 f0       	breq	.+4      	; 0x1440 <vfprintf+0x1d8>
    143c:	89 36       	cpi	r24, 0x69	; 105
    143e:	31 f5       	brne	.+76     	; 0x148c <vfprintf+0x224>
    1440:	f8 01       	movw	r30, r16
    1442:	27 ff       	sbrs	r18, 7
    1444:	07 c0       	rjmp	.+14     	; 0x1454 <vfprintf+0x1ec>
    1446:	60 81       	ld	r22, Z
    1448:	71 81       	ldd	r23, Z+1	; 0x01
    144a:	82 81       	ldd	r24, Z+2	; 0x02
    144c:	93 81       	ldd	r25, Z+3	; 0x03
    144e:	0c 5f       	subi	r16, 0xFC	; 252
    1450:	1f 4f       	sbci	r17, 0xFF	; 255
    1452:	08 c0       	rjmp	.+16     	; 0x1464 <vfprintf+0x1fc>
    1454:	60 81       	ld	r22, Z
    1456:	71 81       	ldd	r23, Z+1	; 0x01
    1458:	07 2e       	mov	r0, r23
    145a:	00 0c       	add	r0, r0
    145c:	88 0b       	sbc	r24, r24
    145e:	99 0b       	sbc	r25, r25
    1460:	0e 5f       	subi	r16, 0xFE	; 254
    1462:	1f 4f       	sbci	r17, 0xFF	; 255
    1464:	2f 76       	andi	r18, 0x6F	; 111
    1466:	72 2e       	mov	r7, r18
    1468:	97 ff       	sbrs	r25, 7
    146a:	09 c0       	rjmp	.+18     	; 0x147e <vfprintf+0x216>
    146c:	90 95       	com	r25
    146e:	80 95       	com	r24
    1470:	70 95       	com	r23
    1472:	61 95       	neg	r22
    1474:	7f 4f       	sbci	r23, 0xFF	; 255
    1476:	8f 4f       	sbci	r24, 0xFF	; 255
    1478:	9f 4f       	sbci	r25, 0xFF	; 255
    147a:	20 68       	ori	r18, 0x80	; 128
    147c:	72 2e       	mov	r7, r18
    147e:	2a e0       	ldi	r18, 0x0A	; 10
    1480:	30 e0       	ldi	r19, 0x00	; 0
    1482:	a4 01       	movw	r20, r8
    1484:	b3 d2       	rcall	.+1382   	; 0x19ec <__ultoa_invert>
    1486:	a8 2e       	mov	r10, r24
    1488:	a8 18       	sub	r10, r8
    148a:	43 c0       	rjmp	.+134    	; 0x1512 <vfprintf+0x2aa>
    148c:	85 37       	cpi	r24, 0x75	; 117
    148e:	29 f4       	brne	.+10     	; 0x149a <vfprintf+0x232>
    1490:	2f 7e       	andi	r18, 0xEF	; 239
    1492:	b2 2e       	mov	r11, r18
    1494:	2a e0       	ldi	r18, 0x0A	; 10
    1496:	30 e0       	ldi	r19, 0x00	; 0
    1498:	25 c0       	rjmp	.+74     	; 0x14e4 <vfprintf+0x27c>
    149a:	f2 2f       	mov	r31, r18
    149c:	f9 7f       	andi	r31, 0xF9	; 249
    149e:	bf 2e       	mov	r11, r31
    14a0:	8f 36       	cpi	r24, 0x6F	; 111
    14a2:	c1 f0       	breq	.+48     	; 0x14d4 <vfprintf+0x26c>
    14a4:	18 f4       	brcc	.+6      	; 0x14ac <vfprintf+0x244>
    14a6:	88 35       	cpi	r24, 0x58	; 88
    14a8:	79 f0       	breq	.+30     	; 0x14c8 <vfprintf+0x260>
    14aa:	ad c0       	rjmp	.+346    	; 0x1606 <vfprintf+0x39e>
    14ac:	80 37       	cpi	r24, 0x70	; 112
    14ae:	19 f0       	breq	.+6      	; 0x14b6 <vfprintf+0x24e>
    14b0:	88 37       	cpi	r24, 0x78	; 120
    14b2:	21 f0       	breq	.+8      	; 0x14bc <vfprintf+0x254>
    14b4:	a8 c0       	rjmp	.+336    	; 0x1606 <vfprintf+0x39e>
    14b6:	2f 2f       	mov	r18, r31
    14b8:	20 61       	ori	r18, 0x10	; 16
    14ba:	b2 2e       	mov	r11, r18
    14bc:	b4 fe       	sbrs	r11, 4
    14be:	0d c0       	rjmp	.+26     	; 0x14da <vfprintf+0x272>
    14c0:	8b 2d       	mov	r24, r11
    14c2:	84 60       	ori	r24, 0x04	; 4
    14c4:	b8 2e       	mov	r11, r24
    14c6:	09 c0       	rjmp	.+18     	; 0x14da <vfprintf+0x272>
    14c8:	24 ff       	sbrs	r18, 4
    14ca:	0a c0       	rjmp	.+20     	; 0x14e0 <vfprintf+0x278>
    14cc:	9f 2f       	mov	r25, r31
    14ce:	96 60       	ori	r25, 0x06	; 6
    14d0:	b9 2e       	mov	r11, r25
    14d2:	06 c0       	rjmp	.+12     	; 0x14e0 <vfprintf+0x278>
    14d4:	28 e0       	ldi	r18, 0x08	; 8
    14d6:	30 e0       	ldi	r19, 0x00	; 0
    14d8:	05 c0       	rjmp	.+10     	; 0x14e4 <vfprintf+0x27c>
    14da:	20 e1       	ldi	r18, 0x10	; 16
    14dc:	30 e0       	ldi	r19, 0x00	; 0
    14de:	02 c0       	rjmp	.+4      	; 0x14e4 <vfprintf+0x27c>
    14e0:	20 e1       	ldi	r18, 0x10	; 16
    14e2:	32 e0       	ldi	r19, 0x02	; 2
    14e4:	f8 01       	movw	r30, r16
    14e6:	b7 fe       	sbrs	r11, 7
    14e8:	07 c0       	rjmp	.+14     	; 0x14f8 <vfprintf+0x290>
    14ea:	60 81       	ld	r22, Z
    14ec:	71 81       	ldd	r23, Z+1	; 0x01
    14ee:	82 81       	ldd	r24, Z+2	; 0x02
    14f0:	93 81       	ldd	r25, Z+3	; 0x03
    14f2:	0c 5f       	subi	r16, 0xFC	; 252
    14f4:	1f 4f       	sbci	r17, 0xFF	; 255
    14f6:	06 c0       	rjmp	.+12     	; 0x1504 <vfprintf+0x29c>
    14f8:	60 81       	ld	r22, Z
    14fa:	71 81       	ldd	r23, Z+1	; 0x01
    14fc:	80 e0       	ldi	r24, 0x00	; 0
    14fe:	90 e0       	ldi	r25, 0x00	; 0
    1500:	0e 5f       	subi	r16, 0xFE	; 254
    1502:	1f 4f       	sbci	r17, 0xFF	; 255
    1504:	a4 01       	movw	r20, r8
    1506:	72 d2       	rcall	.+1252   	; 0x19ec <__ultoa_invert>
    1508:	a8 2e       	mov	r10, r24
    150a:	a8 18       	sub	r10, r8
    150c:	fb 2d       	mov	r31, r11
    150e:	ff 77       	andi	r31, 0x7F	; 127
    1510:	7f 2e       	mov	r7, r31
    1512:	76 fe       	sbrs	r7, 6
    1514:	0b c0       	rjmp	.+22     	; 0x152c <vfprintf+0x2c4>
    1516:	37 2d       	mov	r19, r7
    1518:	3e 7f       	andi	r19, 0xFE	; 254
    151a:	a5 14       	cp	r10, r5
    151c:	50 f4       	brcc	.+20     	; 0x1532 <vfprintf+0x2ca>
    151e:	74 fe       	sbrs	r7, 4
    1520:	0a c0       	rjmp	.+20     	; 0x1536 <vfprintf+0x2ce>
    1522:	72 fc       	sbrc	r7, 2
    1524:	08 c0       	rjmp	.+16     	; 0x1536 <vfprintf+0x2ce>
    1526:	37 2d       	mov	r19, r7
    1528:	3e 7e       	andi	r19, 0xEE	; 238
    152a:	05 c0       	rjmp	.+10     	; 0x1536 <vfprintf+0x2ce>
    152c:	ba 2c       	mov	r11, r10
    152e:	37 2d       	mov	r19, r7
    1530:	03 c0       	rjmp	.+6      	; 0x1538 <vfprintf+0x2d0>
    1532:	ba 2c       	mov	r11, r10
    1534:	01 c0       	rjmp	.+2      	; 0x1538 <vfprintf+0x2d0>
    1536:	b5 2c       	mov	r11, r5
    1538:	34 ff       	sbrs	r19, 4
    153a:	0d c0       	rjmp	.+26     	; 0x1556 <vfprintf+0x2ee>
    153c:	fe 01       	movw	r30, r28
    153e:	ea 0d       	add	r30, r10
    1540:	f1 1d       	adc	r31, r1
    1542:	80 81       	ld	r24, Z
    1544:	80 33       	cpi	r24, 0x30	; 48
    1546:	11 f4       	brne	.+4      	; 0x154c <vfprintf+0x2e4>
    1548:	39 7e       	andi	r19, 0xE9	; 233
    154a:	09 c0       	rjmp	.+18     	; 0x155e <vfprintf+0x2f6>
    154c:	32 ff       	sbrs	r19, 2
    154e:	06 c0       	rjmp	.+12     	; 0x155c <vfprintf+0x2f4>
    1550:	b3 94       	inc	r11
    1552:	b3 94       	inc	r11
    1554:	04 c0       	rjmp	.+8      	; 0x155e <vfprintf+0x2f6>
    1556:	83 2f       	mov	r24, r19
    1558:	86 78       	andi	r24, 0x86	; 134
    155a:	09 f0       	breq	.+2      	; 0x155e <vfprintf+0x2f6>
    155c:	b3 94       	inc	r11
    155e:	33 fd       	sbrc	r19, 3
    1560:	12 c0       	rjmp	.+36     	; 0x1586 <vfprintf+0x31e>
    1562:	30 ff       	sbrs	r19, 0
    1564:	06 c0       	rjmp	.+12     	; 0x1572 <vfprintf+0x30a>
    1566:	5a 2c       	mov	r5, r10
    1568:	b3 14       	cp	r11, r3
    156a:	18 f4       	brcc	.+6      	; 0x1572 <vfprintf+0x30a>
    156c:	53 0c       	add	r5, r3
    156e:	5b 18       	sub	r5, r11
    1570:	b3 2c       	mov	r11, r3
    1572:	b3 14       	cp	r11, r3
    1574:	60 f4       	brcc	.+24     	; 0x158e <vfprintf+0x326>
    1576:	b7 01       	movw	r22, r14
    1578:	80 e2       	ldi	r24, 0x20	; 32
    157a:	90 e0       	ldi	r25, 0x00	; 0
    157c:	3c 87       	std	Y+12, r19	; 0x0c
    157e:	fe d1       	rcall	.+1020   	; 0x197c <fputc>
    1580:	b3 94       	inc	r11
    1582:	3c 85       	ldd	r19, Y+12	; 0x0c
    1584:	f6 cf       	rjmp	.-20     	; 0x1572 <vfprintf+0x30a>
    1586:	b3 14       	cp	r11, r3
    1588:	10 f4       	brcc	.+4      	; 0x158e <vfprintf+0x326>
    158a:	3b 18       	sub	r3, r11
    158c:	01 c0       	rjmp	.+2      	; 0x1590 <vfprintf+0x328>
    158e:	31 2c       	mov	r3, r1
    1590:	34 ff       	sbrs	r19, 4
    1592:	11 c0       	rjmp	.+34     	; 0x15b6 <vfprintf+0x34e>
    1594:	b7 01       	movw	r22, r14
    1596:	80 e3       	ldi	r24, 0x30	; 48
    1598:	90 e0       	ldi	r25, 0x00	; 0
    159a:	3c 87       	std	Y+12, r19	; 0x0c
    159c:	ef d1       	rcall	.+990    	; 0x197c <fputc>
    159e:	3c 85       	ldd	r19, Y+12	; 0x0c
    15a0:	32 ff       	sbrs	r19, 2
    15a2:	16 c0       	rjmp	.+44     	; 0x15d0 <vfprintf+0x368>
    15a4:	31 fd       	sbrc	r19, 1
    15a6:	03 c0       	rjmp	.+6      	; 0x15ae <vfprintf+0x346>
    15a8:	88 e7       	ldi	r24, 0x78	; 120
    15aa:	90 e0       	ldi	r25, 0x00	; 0
    15ac:	02 c0       	rjmp	.+4      	; 0x15b2 <vfprintf+0x34a>
    15ae:	88 e5       	ldi	r24, 0x58	; 88
    15b0:	90 e0       	ldi	r25, 0x00	; 0
    15b2:	b7 01       	movw	r22, r14
    15b4:	0c c0       	rjmp	.+24     	; 0x15ce <vfprintf+0x366>
    15b6:	83 2f       	mov	r24, r19
    15b8:	86 78       	andi	r24, 0x86	; 134
    15ba:	51 f0       	breq	.+20     	; 0x15d0 <vfprintf+0x368>
    15bc:	31 ff       	sbrs	r19, 1
    15be:	02 c0       	rjmp	.+4      	; 0x15c4 <vfprintf+0x35c>
    15c0:	8b e2       	ldi	r24, 0x2B	; 43
    15c2:	01 c0       	rjmp	.+2      	; 0x15c6 <vfprintf+0x35e>
    15c4:	80 e2       	ldi	r24, 0x20	; 32
    15c6:	37 fd       	sbrc	r19, 7
    15c8:	8d e2       	ldi	r24, 0x2D	; 45
    15ca:	b7 01       	movw	r22, r14
    15cc:	90 e0       	ldi	r25, 0x00	; 0
    15ce:	d6 d1       	rcall	.+940    	; 0x197c <fputc>
    15d0:	a5 14       	cp	r10, r5
    15d2:	30 f4       	brcc	.+12     	; 0x15e0 <vfprintf+0x378>
    15d4:	b7 01       	movw	r22, r14
    15d6:	80 e3       	ldi	r24, 0x30	; 48
    15d8:	90 e0       	ldi	r25, 0x00	; 0
    15da:	d0 d1       	rcall	.+928    	; 0x197c <fputc>
    15dc:	5a 94       	dec	r5
    15de:	f8 cf       	rjmp	.-16     	; 0x15d0 <vfprintf+0x368>
    15e0:	aa 94       	dec	r10
    15e2:	f4 01       	movw	r30, r8
    15e4:	ea 0d       	add	r30, r10
    15e6:	f1 1d       	adc	r31, r1
    15e8:	80 81       	ld	r24, Z
    15ea:	b7 01       	movw	r22, r14
    15ec:	90 e0       	ldi	r25, 0x00	; 0
    15ee:	c6 d1       	rcall	.+908    	; 0x197c <fputc>
    15f0:	a1 10       	cpse	r10, r1
    15f2:	f6 cf       	rjmp	.-20     	; 0x15e0 <vfprintf+0x378>
    15f4:	33 20       	and	r3, r3
    15f6:	09 f4       	brne	.+2      	; 0x15fa <vfprintf+0x392>
    15f8:	5d ce       	rjmp	.-838    	; 0x12b4 <vfprintf+0x4c>
    15fa:	b7 01       	movw	r22, r14
    15fc:	80 e2       	ldi	r24, 0x20	; 32
    15fe:	90 e0       	ldi	r25, 0x00	; 0
    1600:	bd d1       	rcall	.+890    	; 0x197c <fputc>
    1602:	3a 94       	dec	r3
    1604:	f7 cf       	rjmp	.-18     	; 0x15f4 <vfprintf+0x38c>
    1606:	f7 01       	movw	r30, r14
    1608:	86 81       	ldd	r24, Z+6	; 0x06
    160a:	97 81       	ldd	r25, Z+7	; 0x07
    160c:	02 c0       	rjmp	.+4      	; 0x1612 <vfprintf+0x3aa>
    160e:	8f ef       	ldi	r24, 0xFF	; 255
    1610:	9f ef       	ldi	r25, 0xFF	; 255
    1612:	2c 96       	adiw	r28, 0x0c	; 12
    1614:	0f b6       	in	r0, 0x3f	; 63
    1616:	f8 94       	cli
    1618:	de bf       	out	0x3e, r29	; 62
    161a:	0f be       	out	0x3f, r0	; 63
    161c:	cd bf       	out	0x3d, r28	; 61
    161e:	df 91       	pop	r29
    1620:	cf 91       	pop	r28
    1622:	1f 91       	pop	r17
    1624:	0f 91       	pop	r16
    1626:	ff 90       	pop	r15
    1628:	ef 90       	pop	r14
    162a:	df 90       	pop	r13
    162c:	cf 90       	pop	r12
    162e:	bf 90       	pop	r11
    1630:	af 90       	pop	r10
    1632:	9f 90       	pop	r9
    1634:	8f 90       	pop	r8
    1636:	7f 90       	pop	r7
    1638:	6f 90       	pop	r6
    163a:	5f 90       	pop	r5
    163c:	4f 90       	pop	r4
    163e:	3f 90       	pop	r3
    1640:	2f 90       	pop	r2
    1642:	08 95       	ret

00001644 <strtod>:
    1644:	6f 92       	push	r6
    1646:	7f 92       	push	r7
    1648:	8f 92       	push	r8
    164a:	9f 92       	push	r9
    164c:	af 92       	push	r10
    164e:	bf 92       	push	r11
    1650:	cf 92       	push	r12
    1652:	df 92       	push	r13
    1654:	ef 92       	push	r14
    1656:	ff 92       	push	r15
    1658:	0f 93       	push	r16
    165a:	1f 93       	push	r17
    165c:	cf 93       	push	r28
    165e:	df 93       	push	r29
    1660:	ec 01       	movw	r28, r24
    1662:	7b 01       	movw	r14, r22
    1664:	61 15       	cp	r22, r1
    1666:	71 05       	cpc	r23, r1
    1668:	19 f0       	breq	.+6      	; 0x1670 <strtod+0x2c>
    166a:	db 01       	movw	r26, r22
    166c:	8d 93       	st	X+, r24
    166e:	9c 93       	st	X, r25
    1670:	8e 01       	movw	r16, r28
    1672:	0f 5f       	subi	r16, 0xFF	; 255
    1674:	1f 4f       	sbci	r17, 0xFF	; 255
    1676:	78 80       	ld	r7, Y
    1678:	87 2d       	mov	r24, r7
    167a:	90 e0       	ldi	r25, 0x00	; 0
    167c:	49 d1       	rcall	.+658    	; 0x1910 <isspace>
    167e:	89 2b       	or	r24, r25
    1680:	11 f0       	breq	.+4      	; 0x1686 <strtod+0x42>
    1682:	e8 01       	movw	r28, r16
    1684:	f5 cf       	rjmp	.-22     	; 0x1670 <strtod+0x2c>
    1686:	bd e2       	ldi	r27, 0x2D	; 45
    1688:	7b 12       	cpse	r7, r27
    168a:	05 c0       	rjmp	.+10     	; 0x1696 <strtod+0x52>
    168c:	0f 5f       	subi	r16, 0xFF	; 255
    168e:	1f 4f       	sbci	r17, 0xFF	; 255
    1690:	79 80       	ldd	r7, Y+1	; 0x01
    1692:	c1 e0       	ldi	r28, 0x01	; 1
    1694:	08 c0       	rjmp	.+16     	; 0x16a6 <strtod+0x62>
    1696:	eb e2       	ldi	r30, 0x2B	; 43
    1698:	7e 12       	cpse	r7, r30
    169a:	04 c0       	rjmp	.+8      	; 0x16a4 <strtod+0x60>
    169c:	8e 01       	movw	r16, r28
    169e:	0e 5f       	subi	r16, 0xFE	; 254
    16a0:	1f 4f       	sbci	r17, 0xFF	; 255
    16a2:	79 80       	ldd	r7, Y+1	; 0x01
    16a4:	c0 e0       	ldi	r28, 0x00	; 0
    16a6:	68 01       	movw	r12, r16
    16a8:	f1 e0       	ldi	r31, 0x01	; 1
    16aa:	cf 1a       	sub	r12, r31
    16ac:	d1 08       	sbc	r13, r1
    16ae:	43 e0       	ldi	r20, 0x03	; 3
    16b0:	50 e0       	ldi	r21, 0x00	; 0
    16b2:	6c ee       	ldi	r22, 0xEC	; 236
    16b4:	70 e0       	ldi	r23, 0x00	; 0
    16b6:	c6 01       	movw	r24, r12
    16b8:	33 d1       	rcall	.+614    	; 0x1920 <strncasecmp_P>
    16ba:	89 2b       	or	r24, r25
    16bc:	e9 f4       	brne	.+58     	; 0x16f8 <strtod+0xb4>
    16be:	68 01       	movw	r12, r16
    16c0:	22 e0       	ldi	r18, 0x02	; 2
    16c2:	c2 0e       	add	r12, r18
    16c4:	d1 1c       	adc	r13, r1
    16c6:	45 e0       	ldi	r20, 0x05	; 5
    16c8:	50 e0       	ldi	r21, 0x00	; 0
    16ca:	67 ee       	ldi	r22, 0xE7	; 231
    16cc:	70 e0       	ldi	r23, 0x00	; 0
    16ce:	c6 01       	movw	r24, r12
    16d0:	27 d1       	rcall	.+590    	; 0x1920 <strncasecmp_P>
    16d2:	89 2b       	or	r24, r25
    16d4:	21 f4       	brne	.+8      	; 0x16de <strtod+0x9a>
    16d6:	68 01       	movw	r12, r16
    16d8:	87 e0       	ldi	r24, 0x07	; 7
    16da:	c8 0e       	add	r12, r24
    16dc:	d1 1c       	adc	r13, r1
    16de:	e1 14       	cp	r14, r1
    16e0:	f1 04       	cpc	r15, r1
    16e2:	19 f0       	breq	.+6      	; 0x16ea <strtod+0xa6>
    16e4:	d7 01       	movw	r26, r14
    16e6:	cd 92       	st	X+, r12
    16e8:	dc 92       	st	X, r13
    16ea:	c1 11       	cpse	r28, r1
    16ec:	f9 c0       	rjmp	.+498    	; 0x18e0 <strtod+0x29c>
    16ee:	60 e0       	ldi	r22, 0x00	; 0
    16f0:	70 e0       	ldi	r23, 0x00	; 0
    16f2:	80 e8       	ldi	r24, 0x80	; 128
    16f4:	9f e7       	ldi	r25, 0x7F	; 127
    16f6:	fd c0       	rjmp	.+506    	; 0x18f2 <strtod+0x2ae>
    16f8:	43 e0       	ldi	r20, 0x03	; 3
    16fa:	50 e0       	ldi	r21, 0x00	; 0
    16fc:	64 ee       	ldi	r22, 0xE4	; 228
    16fe:	70 e0       	ldi	r23, 0x00	; 0
    1700:	c6 01       	movw	r24, r12
    1702:	0e d1       	rcall	.+540    	; 0x1920 <strncasecmp_P>
    1704:	89 2b       	or	r24, r25
    1706:	51 f4       	brne	.+20     	; 0x171c <strtod+0xd8>
    1708:	e1 14       	cp	r14, r1
    170a:	f1 04       	cpc	r15, r1
    170c:	09 f4       	brne	.+2      	; 0x1710 <strtod+0xcc>
    170e:	ed c0       	rjmp	.+474    	; 0x18ea <strtod+0x2a6>
    1710:	0e 5f       	subi	r16, 0xFE	; 254
    1712:	1f 4f       	sbci	r17, 0xFF	; 255
    1714:	f7 01       	movw	r30, r14
    1716:	11 83       	std	Z+1, r17	; 0x01
    1718:	00 83       	st	Z, r16
    171a:	e7 c0       	rjmp	.+462    	; 0x18ea <strtod+0x2a6>
    171c:	68 01       	movw	r12, r16
    171e:	60 e0       	ldi	r22, 0x00	; 0
    1720:	70 e0       	ldi	r23, 0x00	; 0
    1722:	cb 01       	movw	r24, r22
    1724:	00 e0       	ldi	r16, 0x00	; 0
    1726:	10 e0       	ldi	r17, 0x00	; 0
    1728:	f6 01       	movw	r30, r12
    172a:	d0 ed       	ldi	r29, 0xD0	; 208
    172c:	d7 0d       	add	r29, r7
    172e:	da 30       	cpi	r29, 0x0A	; 10
    1730:	50 f5       	brcc	.+84     	; 0x1786 <strtod+0x142>
    1732:	2c 2f       	mov	r18, r28
    1734:	22 60       	ori	r18, 0x02	; 2
    1736:	62 2e       	mov	r6, r18
    1738:	2c 2f       	mov	r18, r28
    173a:	28 70       	andi	r18, 0x08	; 8
    173c:	c2 ff       	sbrs	r28, 2
    173e:	05 c0       	rjmp	.+10     	; 0x174a <strtod+0x106>
    1740:	21 11       	cpse	r18, r1
    1742:	27 c0       	rjmp	.+78     	; 0x1792 <strtod+0x14e>
    1744:	0f 5f       	subi	r16, 0xFF	; 255
    1746:	1f 4f       	sbci	r17, 0xFF	; 255
    1748:	24 c0       	rjmp	.+72     	; 0x1792 <strtod+0x14e>
    174a:	22 23       	and	r18, r18
    174c:	11 f0       	breq	.+4      	; 0x1752 <strtod+0x10e>
    174e:	01 50       	subi	r16, 0x01	; 1
    1750:	11 09       	sbc	r17, r1
    1752:	a5 e0       	ldi	r26, 0x05	; 5
    1754:	b0 e0       	ldi	r27, 0x00	; 0
    1756:	9b 01       	movw	r18, r22
    1758:	ac 01       	movw	r20, r24
    175a:	a9 d1       	rcall	.+850    	; 0x1aae <__muluhisi3>
    175c:	4b 01       	movw	r8, r22
    175e:	5c 01       	movw	r10, r24
    1760:	88 0c       	add	r8, r8
    1762:	99 1c       	adc	r9, r9
    1764:	aa 1c       	adc	r10, r10
    1766:	bb 1c       	adc	r11, r11
    1768:	c5 01       	movw	r24, r10
    176a:	b4 01       	movw	r22, r8
    176c:	6d 0f       	add	r22, r29
    176e:	71 1d       	adc	r23, r1
    1770:	81 1d       	adc	r24, r1
    1772:	91 1d       	adc	r25, r1
    1774:	68 39       	cpi	r22, 0x98	; 152
    1776:	a9 e9       	ldi	r26, 0x99	; 153
    1778:	7a 07       	cpc	r23, r26
    177a:	8a 07       	cpc	r24, r26
    177c:	a9 e1       	ldi	r26, 0x19	; 25
    177e:	9a 07       	cpc	r25, r26
    1780:	40 f0       	brcs	.+16     	; 0x1792 <strtod+0x14e>
    1782:	c6 60       	ori	r28, 0x06	; 6
    1784:	05 c0       	rjmp	.+10     	; 0x1790 <strtod+0x14c>
    1786:	de 3f       	cpi	r29, 0xFE	; 254
    1788:	51 f4       	brne	.+20     	; 0x179e <strtod+0x15a>
    178a:	c3 fd       	sbrc	r28, 3
    178c:	44 c0       	rjmp	.+136    	; 0x1816 <strtod+0x1d2>
    178e:	c8 60       	ori	r28, 0x08	; 8
    1790:	6c 2e       	mov	r6, r28
    1792:	bf ef       	ldi	r27, 0xFF	; 255
    1794:	cb 1a       	sub	r12, r27
    1796:	db 0a       	sbc	r13, r27
    1798:	70 80       	ld	r7, Z
    179a:	c6 2d       	mov	r28, r6
    179c:	c5 cf       	rjmp	.-118    	; 0x1728 <strtod+0xe4>
    179e:	2d 2f       	mov	r18, r29
    17a0:	2f 7d       	andi	r18, 0xDF	; 223
    17a2:	25 31       	cpi	r18, 0x15	; 21
    17a4:	c1 f5       	brne	.+112    	; 0x1816 <strtod+0x1d2>
    17a6:	40 81       	ld	r20, Z
    17a8:	4d 32       	cpi	r20, 0x2D	; 45
    17aa:	11 f4       	brne	.+4      	; 0x17b0 <strtod+0x16c>
    17ac:	c0 61       	ori	r28, 0x10	; 16
    17ae:	06 c0       	rjmp	.+12     	; 0x17bc <strtod+0x178>
    17b0:	4b 32       	cpi	r20, 0x2B	; 43
    17b2:	21 f0       	breq	.+8      	; 0x17bc <strtod+0x178>
    17b4:	31 96       	adiw	r30, 0x01	; 1
    17b6:	21 e0       	ldi	r18, 0x01	; 1
    17b8:	30 e0       	ldi	r19, 0x00	; 0
    17ba:	06 c0       	rjmp	.+12     	; 0x17c8 <strtod+0x184>
    17bc:	32 96       	adiw	r30, 0x02	; 2
    17be:	d6 01       	movw	r26, r12
    17c0:	11 96       	adiw	r26, 0x01	; 1
    17c2:	4c 91       	ld	r20, X
    17c4:	22 e0       	ldi	r18, 0x02	; 2
    17c6:	30 e0       	ldi	r19, 0x00	; 0
    17c8:	a0 ed       	ldi	r26, 0xD0	; 208
    17ca:	a4 0f       	add	r26, r20
    17cc:	aa 30       	cpi	r26, 0x0A	; 10
    17ce:	18 f0       	brcs	.+6      	; 0x17d6 <strtod+0x192>
    17d0:	e2 1b       	sub	r30, r18
    17d2:	f3 0b       	sbc	r31, r19
    17d4:	20 c0       	rjmp	.+64     	; 0x1816 <strtod+0x1d2>
    17d6:	40 e0       	ldi	r20, 0x00	; 0
    17d8:	50 e0       	ldi	r21, 0x00	; 0
    17da:	40 38       	cpi	r20, 0x80	; 128
    17dc:	bc e0       	ldi	r27, 0x0C	; 12
    17de:	5b 07       	cpc	r21, r27
    17e0:	5c f4       	brge	.+22     	; 0x17f8 <strtod+0x1b4>
    17e2:	9a 01       	movw	r18, r20
    17e4:	22 0f       	add	r18, r18
    17e6:	33 1f       	adc	r19, r19
    17e8:	22 0f       	add	r18, r18
    17ea:	33 1f       	adc	r19, r19
    17ec:	42 0f       	add	r20, r18
    17ee:	53 1f       	adc	r21, r19
    17f0:	44 0f       	add	r20, r20
    17f2:	55 1f       	adc	r21, r21
    17f4:	4a 0f       	add	r20, r26
    17f6:	51 1d       	adc	r21, r1
    17f8:	31 96       	adiw	r30, 0x01	; 1
    17fa:	df 01       	movw	r26, r30
    17fc:	11 97       	sbiw	r26, 0x01	; 1
    17fe:	2c 91       	ld	r18, X
    1800:	a0 ed       	ldi	r26, 0xD0	; 208
    1802:	a2 0f       	add	r26, r18
    1804:	aa 30       	cpi	r26, 0x0A	; 10
    1806:	48 f3       	brcs	.-46     	; 0x17da <strtod+0x196>
    1808:	c4 ff       	sbrs	r28, 4
    180a:	03 c0       	rjmp	.+6      	; 0x1812 <strtod+0x1ce>
    180c:	51 95       	neg	r21
    180e:	41 95       	neg	r20
    1810:	51 09       	sbc	r21, r1
    1812:	04 0f       	add	r16, r20
    1814:	15 1f       	adc	r17, r21
    1816:	c1 ff       	sbrs	r28, 1
    1818:	07 c0       	rjmp	.+14     	; 0x1828 <strtod+0x1e4>
    181a:	e1 14       	cp	r14, r1
    181c:	f1 04       	cpc	r15, r1
    181e:	21 f0       	breq	.+8      	; 0x1828 <strtod+0x1e4>
    1820:	31 97       	sbiw	r30, 0x01	; 1
    1822:	d7 01       	movw	r26, r14
    1824:	ed 93       	st	X+, r30
    1826:	fc 93       	st	X, r31
    1828:	c2 d9       	rcall	.-3196   	; 0xbae <__floatunsisf>
    182a:	c3 70       	andi	r28, 0x03	; 3
    182c:	c3 30       	cpi	r28, 0x03	; 3
    182e:	19 f0       	breq	.+6      	; 0x1836 <strtod+0x1f2>
    1830:	6b 01       	movw	r12, r22
    1832:	7c 01       	movw	r14, r24
    1834:	06 c0       	rjmp	.+12     	; 0x1842 <strtod+0x1fe>
    1836:	6b 01       	movw	r12, r22
    1838:	7c 01       	movw	r14, r24
    183a:	f7 fa       	bst	r15, 7
    183c:	f0 94       	com	r15
    183e:	f7 f8       	bld	r15, 7
    1840:	f0 94       	com	r15
    1842:	20 e0       	ldi	r18, 0x00	; 0
    1844:	30 e0       	ldi	r19, 0x00	; 0
    1846:	a9 01       	movw	r20, r18
    1848:	c7 01       	movw	r24, r14
    184a:	b6 01       	movw	r22, r12
    184c:	13 d9       	rcall	.-3546   	; 0xa74 <__cmpsf2>
    184e:	88 23       	and	r24, r24
    1850:	09 f4       	brne	.+2      	; 0x1854 <strtod+0x210>
    1852:	43 c0       	rjmp	.+134    	; 0x18da <strtod+0x296>
    1854:	17 ff       	sbrs	r17, 7
    1856:	06 c0       	rjmp	.+12     	; 0x1864 <strtod+0x220>
    1858:	11 95       	neg	r17
    185a:	01 95       	neg	r16
    185c:	11 09       	sbc	r17, r1
    185e:	c3 e0       	ldi	r28, 0x03	; 3
    1860:	d1 e0       	ldi	r29, 0x01	; 1
    1862:	02 c0       	rjmp	.+4      	; 0x1868 <strtod+0x224>
    1864:	cb e1       	ldi	r28, 0x1B	; 27
    1866:	d1 e0       	ldi	r29, 0x01	; 1
    1868:	5e 01       	movw	r10, r28
    186a:	b8 e1       	ldi	r27, 0x18	; 24
    186c:	ab 1a       	sub	r10, r27
    186e:	b1 08       	sbc	r11, r1
    1870:	46 01       	movw	r8, r12
    1872:	be 2d       	mov	r27, r14
    1874:	af 2d       	mov	r26, r15
    1876:	90 e2       	ldi	r25, 0x20	; 32
    1878:	e9 2e       	mov	r14, r25
    187a:	f1 2c       	mov	r15, r1
    187c:	0e 15       	cp	r16, r14
    187e:	1f 05       	cpc	r17, r15
    1880:	7c f0       	brlt	.+30     	; 0x18a0 <strtod+0x25c>
    1882:	fe 01       	movw	r30, r28
    1884:	25 91       	lpm	r18, Z+
    1886:	35 91       	lpm	r19, Z+
    1888:	45 91       	lpm	r20, Z+
    188a:	54 91       	lpm	r21, Z
    188c:	b4 01       	movw	r22, r8
    188e:	8b 2f       	mov	r24, r27
    1890:	9a 2f       	mov	r25, r26
    1892:	43 da       	rcall	.-2938   	; 0xd1a <__mulsf3>
    1894:	4b 01       	movw	r8, r22
    1896:	b8 2f       	mov	r27, r24
    1898:	a9 2f       	mov	r26, r25
    189a:	0e 19       	sub	r16, r14
    189c:	1f 09       	sbc	r17, r15
    189e:	ee cf       	rjmp	.-36     	; 0x187c <strtod+0x238>
    18a0:	24 97       	sbiw	r28, 0x04	; 4
    18a2:	f5 94       	asr	r15
    18a4:	e7 94       	ror	r14
    18a6:	ca 15       	cp	r28, r10
    18a8:	db 05       	cpc	r29, r11
    18aa:	41 f7       	brne	.-48     	; 0x187c <strtod+0x238>
    18ac:	64 01       	movw	r12, r8
    18ae:	eb 2e       	mov	r14, r27
    18b0:	fa 2e       	mov	r15, r26
    18b2:	8e 2d       	mov	r24, r14
    18b4:	88 0f       	add	r24, r24
    18b6:	8f 2d       	mov	r24, r15
    18b8:	88 1f       	adc	r24, r24
    18ba:	8f 3f       	cpi	r24, 0xFF	; 255
    18bc:	41 f0       	breq	.+16     	; 0x18ce <strtod+0x28a>
    18be:	20 e0       	ldi	r18, 0x00	; 0
    18c0:	30 e0       	ldi	r19, 0x00	; 0
    18c2:	a9 01       	movw	r20, r18
    18c4:	c7 01       	movw	r24, r14
    18c6:	b6 01       	movw	r22, r12
    18c8:	d5 d8       	rcall	.-3670   	; 0xa74 <__cmpsf2>
    18ca:	81 11       	cpse	r24, r1
    18cc:	06 c0       	rjmp	.+12     	; 0x18da <strtod+0x296>
    18ce:	82 e2       	ldi	r24, 0x22	; 34
    18d0:	90 e0       	ldi	r25, 0x00	; 0
    18d2:	90 93 63 0e 	sts	0x0E63, r25	; 0x800e63 <errno+0x1>
    18d6:	80 93 62 0e 	sts	0x0E62, r24	; 0x800e62 <errno>
    18da:	c7 01       	movw	r24, r14
    18dc:	b6 01       	movw	r22, r12
    18de:	09 c0       	rjmp	.+18     	; 0x18f2 <strtod+0x2ae>
    18e0:	60 e0       	ldi	r22, 0x00	; 0
    18e2:	70 e0       	ldi	r23, 0x00	; 0
    18e4:	80 e8       	ldi	r24, 0x80	; 128
    18e6:	9f ef       	ldi	r25, 0xFF	; 255
    18e8:	04 c0       	rjmp	.+8      	; 0x18f2 <strtod+0x2ae>
    18ea:	60 e0       	ldi	r22, 0x00	; 0
    18ec:	70 e0       	ldi	r23, 0x00	; 0
    18ee:	80 ec       	ldi	r24, 0xC0	; 192
    18f0:	9f e7       	ldi	r25, 0x7F	; 127
    18f2:	df 91       	pop	r29
    18f4:	cf 91       	pop	r28
    18f6:	1f 91       	pop	r17
    18f8:	0f 91       	pop	r16
    18fa:	ff 90       	pop	r15
    18fc:	ef 90       	pop	r14
    18fe:	df 90       	pop	r13
    1900:	cf 90       	pop	r12
    1902:	bf 90       	pop	r11
    1904:	af 90       	pop	r10
    1906:	9f 90       	pop	r9
    1908:	8f 90       	pop	r8
    190a:	7f 90       	pop	r7
    190c:	6f 90       	pop	r6
    190e:	08 95       	ret

00001910 <isspace>:
    1910:	91 11       	cpse	r25, r1
    1912:	ca c0       	rjmp	.+404    	; 0x1aa8 <__ctype_isfalse>
    1914:	80 32       	cpi	r24, 0x20	; 32
    1916:	19 f0       	breq	.+6      	; 0x191e <isspace+0xe>
    1918:	89 50       	subi	r24, 0x09	; 9
    191a:	85 50       	subi	r24, 0x05	; 5
    191c:	d0 f7       	brcc	.-12     	; 0x1912 <isspace+0x2>
    191e:	08 95       	ret

00001920 <strncasecmp_P>:
    1920:	fb 01       	movw	r30, r22
    1922:	dc 01       	movw	r26, r24
    1924:	41 50       	subi	r20, 0x01	; 1
    1926:	50 40       	sbci	r21, 0x00	; 0
    1928:	88 f0       	brcs	.+34     	; 0x194c <strncasecmp_P+0x2c>
    192a:	8d 91       	ld	r24, X+
    192c:	81 34       	cpi	r24, 0x41	; 65
    192e:	1c f0       	brlt	.+6      	; 0x1936 <strncasecmp_P+0x16>
    1930:	8b 35       	cpi	r24, 0x5B	; 91
    1932:	0c f4       	brge	.+2      	; 0x1936 <strncasecmp_P+0x16>
    1934:	80 5e       	subi	r24, 0xE0	; 224
    1936:	65 91       	lpm	r22, Z+
    1938:	61 34       	cpi	r22, 0x41	; 65
    193a:	1c f0       	brlt	.+6      	; 0x1942 <strncasecmp_P+0x22>
    193c:	6b 35       	cpi	r22, 0x5B	; 91
    193e:	0c f4       	brge	.+2      	; 0x1942 <strncasecmp_P+0x22>
    1940:	60 5e       	subi	r22, 0xE0	; 224
    1942:	86 1b       	sub	r24, r22
    1944:	61 11       	cpse	r22, r1
    1946:	71 f3       	breq	.-36     	; 0x1924 <strncasecmp_P+0x4>
    1948:	99 0b       	sbc	r25, r25
    194a:	08 95       	ret
    194c:	88 1b       	sub	r24, r24
    194e:	fc cf       	rjmp	.-8      	; 0x1948 <strncasecmp_P+0x28>

00001950 <strnlen_P>:
    1950:	fc 01       	movw	r30, r24
    1952:	05 90       	lpm	r0, Z+
    1954:	61 50       	subi	r22, 0x01	; 1
    1956:	70 40       	sbci	r23, 0x00	; 0
    1958:	01 10       	cpse	r0, r1
    195a:	d8 f7       	brcc	.-10     	; 0x1952 <strnlen_P+0x2>
    195c:	80 95       	com	r24
    195e:	90 95       	com	r25
    1960:	8e 0f       	add	r24, r30
    1962:	9f 1f       	adc	r25, r31
    1964:	08 95       	ret

00001966 <strnlen>:
    1966:	fc 01       	movw	r30, r24
    1968:	61 50       	subi	r22, 0x01	; 1
    196a:	70 40       	sbci	r23, 0x00	; 0
    196c:	01 90       	ld	r0, Z+
    196e:	01 10       	cpse	r0, r1
    1970:	d8 f7       	brcc	.-10     	; 0x1968 <strnlen+0x2>
    1972:	80 95       	com	r24
    1974:	90 95       	com	r25
    1976:	8e 0f       	add	r24, r30
    1978:	9f 1f       	adc	r25, r31
    197a:	08 95       	ret

0000197c <fputc>:
    197c:	0f 93       	push	r16
    197e:	1f 93       	push	r17
    1980:	cf 93       	push	r28
    1982:	df 93       	push	r29
    1984:	fb 01       	movw	r30, r22
    1986:	23 81       	ldd	r18, Z+3	; 0x03
    1988:	21 fd       	sbrc	r18, 1
    198a:	03 c0       	rjmp	.+6      	; 0x1992 <fputc+0x16>
    198c:	8f ef       	ldi	r24, 0xFF	; 255
    198e:	9f ef       	ldi	r25, 0xFF	; 255
    1990:	28 c0       	rjmp	.+80     	; 0x19e2 <fputc+0x66>
    1992:	22 ff       	sbrs	r18, 2
    1994:	16 c0       	rjmp	.+44     	; 0x19c2 <fputc+0x46>
    1996:	46 81       	ldd	r20, Z+6	; 0x06
    1998:	57 81       	ldd	r21, Z+7	; 0x07
    199a:	24 81       	ldd	r18, Z+4	; 0x04
    199c:	35 81       	ldd	r19, Z+5	; 0x05
    199e:	42 17       	cp	r20, r18
    19a0:	53 07       	cpc	r21, r19
    19a2:	44 f4       	brge	.+16     	; 0x19b4 <fputc+0x38>
    19a4:	a0 81       	ld	r26, Z
    19a6:	b1 81       	ldd	r27, Z+1	; 0x01
    19a8:	9d 01       	movw	r18, r26
    19aa:	2f 5f       	subi	r18, 0xFF	; 255
    19ac:	3f 4f       	sbci	r19, 0xFF	; 255
    19ae:	31 83       	std	Z+1, r19	; 0x01
    19b0:	20 83       	st	Z, r18
    19b2:	8c 93       	st	X, r24
    19b4:	26 81       	ldd	r18, Z+6	; 0x06
    19b6:	37 81       	ldd	r19, Z+7	; 0x07
    19b8:	2f 5f       	subi	r18, 0xFF	; 255
    19ba:	3f 4f       	sbci	r19, 0xFF	; 255
    19bc:	37 83       	std	Z+7, r19	; 0x07
    19be:	26 83       	std	Z+6, r18	; 0x06
    19c0:	10 c0       	rjmp	.+32     	; 0x19e2 <fputc+0x66>
    19c2:	eb 01       	movw	r28, r22
    19c4:	09 2f       	mov	r16, r25
    19c6:	18 2f       	mov	r17, r24
    19c8:	00 84       	ldd	r0, Z+8	; 0x08
    19ca:	f1 85       	ldd	r31, Z+9	; 0x09
    19cc:	e0 2d       	mov	r30, r0
    19ce:	19 95       	eicall
    19d0:	89 2b       	or	r24, r25
    19d2:	e1 f6       	brne	.-72     	; 0x198c <fputc+0x10>
    19d4:	8e 81       	ldd	r24, Y+6	; 0x06
    19d6:	9f 81       	ldd	r25, Y+7	; 0x07
    19d8:	01 96       	adiw	r24, 0x01	; 1
    19da:	9f 83       	std	Y+7, r25	; 0x07
    19dc:	8e 83       	std	Y+6, r24	; 0x06
    19de:	81 2f       	mov	r24, r17
    19e0:	90 2f       	mov	r25, r16
    19e2:	df 91       	pop	r29
    19e4:	cf 91       	pop	r28
    19e6:	1f 91       	pop	r17
    19e8:	0f 91       	pop	r16
    19ea:	08 95       	ret

000019ec <__ultoa_invert>:
    19ec:	fa 01       	movw	r30, r20
    19ee:	aa 27       	eor	r26, r26
    19f0:	28 30       	cpi	r18, 0x08	; 8
    19f2:	51 f1       	breq	.+84     	; 0x1a48 <__ultoa_invert+0x5c>
    19f4:	20 31       	cpi	r18, 0x10	; 16
    19f6:	81 f1       	breq	.+96     	; 0x1a58 <__ultoa_invert+0x6c>
    19f8:	e8 94       	clt
    19fa:	6f 93       	push	r22
    19fc:	6e 7f       	andi	r22, 0xFE	; 254
    19fe:	6e 5f       	subi	r22, 0xFE	; 254
    1a00:	7f 4f       	sbci	r23, 0xFF	; 255
    1a02:	8f 4f       	sbci	r24, 0xFF	; 255
    1a04:	9f 4f       	sbci	r25, 0xFF	; 255
    1a06:	af 4f       	sbci	r26, 0xFF	; 255
    1a08:	b1 e0       	ldi	r27, 0x01	; 1
    1a0a:	3e d0       	rcall	.+124    	; 0x1a88 <__ultoa_invert+0x9c>
    1a0c:	b4 e0       	ldi	r27, 0x04	; 4
    1a0e:	3c d0       	rcall	.+120    	; 0x1a88 <__ultoa_invert+0x9c>
    1a10:	67 0f       	add	r22, r23
    1a12:	78 1f       	adc	r23, r24
    1a14:	89 1f       	adc	r24, r25
    1a16:	9a 1f       	adc	r25, r26
    1a18:	a1 1d       	adc	r26, r1
    1a1a:	68 0f       	add	r22, r24
    1a1c:	79 1f       	adc	r23, r25
    1a1e:	8a 1f       	adc	r24, r26
    1a20:	91 1d       	adc	r25, r1
    1a22:	a1 1d       	adc	r26, r1
    1a24:	6a 0f       	add	r22, r26
    1a26:	71 1d       	adc	r23, r1
    1a28:	81 1d       	adc	r24, r1
    1a2a:	91 1d       	adc	r25, r1
    1a2c:	a1 1d       	adc	r26, r1
    1a2e:	20 d0       	rcall	.+64     	; 0x1a70 <__ultoa_invert+0x84>
    1a30:	09 f4       	brne	.+2      	; 0x1a34 <__ultoa_invert+0x48>
    1a32:	68 94       	set
    1a34:	3f 91       	pop	r19
    1a36:	2a e0       	ldi	r18, 0x0A	; 10
    1a38:	26 9f       	mul	r18, r22
    1a3a:	11 24       	eor	r1, r1
    1a3c:	30 19       	sub	r19, r0
    1a3e:	30 5d       	subi	r19, 0xD0	; 208
    1a40:	31 93       	st	Z+, r19
    1a42:	de f6       	brtc	.-74     	; 0x19fa <__ultoa_invert+0xe>
    1a44:	cf 01       	movw	r24, r30
    1a46:	08 95       	ret
    1a48:	46 2f       	mov	r20, r22
    1a4a:	47 70       	andi	r20, 0x07	; 7
    1a4c:	40 5d       	subi	r20, 0xD0	; 208
    1a4e:	41 93       	st	Z+, r20
    1a50:	b3 e0       	ldi	r27, 0x03	; 3
    1a52:	0f d0       	rcall	.+30     	; 0x1a72 <__ultoa_invert+0x86>
    1a54:	c9 f7       	brne	.-14     	; 0x1a48 <__ultoa_invert+0x5c>
    1a56:	f6 cf       	rjmp	.-20     	; 0x1a44 <__ultoa_invert+0x58>
    1a58:	46 2f       	mov	r20, r22
    1a5a:	4f 70       	andi	r20, 0x0F	; 15
    1a5c:	40 5d       	subi	r20, 0xD0	; 208
    1a5e:	4a 33       	cpi	r20, 0x3A	; 58
    1a60:	18 f0       	brcs	.+6      	; 0x1a68 <__ultoa_invert+0x7c>
    1a62:	49 5d       	subi	r20, 0xD9	; 217
    1a64:	31 fd       	sbrc	r19, 1
    1a66:	40 52       	subi	r20, 0x20	; 32
    1a68:	41 93       	st	Z+, r20
    1a6a:	02 d0       	rcall	.+4      	; 0x1a70 <__ultoa_invert+0x84>
    1a6c:	a9 f7       	brne	.-22     	; 0x1a58 <__ultoa_invert+0x6c>
    1a6e:	ea cf       	rjmp	.-44     	; 0x1a44 <__ultoa_invert+0x58>
    1a70:	b4 e0       	ldi	r27, 0x04	; 4
    1a72:	a6 95       	lsr	r26
    1a74:	97 95       	ror	r25
    1a76:	87 95       	ror	r24
    1a78:	77 95       	ror	r23
    1a7a:	67 95       	ror	r22
    1a7c:	ba 95       	dec	r27
    1a7e:	c9 f7       	brne	.-14     	; 0x1a72 <__ultoa_invert+0x86>
    1a80:	00 97       	sbiw	r24, 0x00	; 0
    1a82:	61 05       	cpc	r22, r1
    1a84:	71 05       	cpc	r23, r1
    1a86:	08 95       	ret
    1a88:	9b 01       	movw	r18, r22
    1a8a:	ac 01       	movw	r20, r24
    1a8c:	0a 2e       	mov	r0, r26
    1a8e:	06 94       	lsr	r0
    1a90:	57 95       	ror	r21
    1a92:	47 95       	ror	r20
    1a94:	37 95       	ror	r19
    1a96:	27 95       	ror	r18
    1a98:	ba 95       	dec	r27
    1a9a:	c9 f7       	brne	.-14     	; 0x1a8e <__ultoa_invert+0xa2>
    1a9c:	62 0f       	add	r22, r18
    1a9e:	73 1f       	adc	r23, r19
    1aa0:	84 1f       	adc	r24, r20
    1aa2:	95 1f       	adc	r25, r21
    1aa4:	a0 1d       	adc	r26, r0
    1aa6:	08 95       	ret

00001aa8 <__ctype_isfalse>:
    1aa8:	99 27       	eor	r25, r25
    1aaa:	88 27       	eor	r24, r24

00001aac <__ctype_istrue>:
    1aac:	08 95       	ret

00001aae <__muluhisi3>:
    1aae:	07 db       	rcall	.-2546   	; 0x10be <__umulhisi3>
    1ab0:	a5 9f       	mul	r26, r21
    1ab2:	90 0d       	add	r25, r0
    1ab4:	b4 9f       	mul	r27, r20
    1ab6:	90 0d       	add	r25, r0
    1ab8:	a4 9f       	mul	r26, r20
    1aba:	80 0d       	add	r24, r0
    1abc:	91 1d       	adc	r25, r1
    1abe:	11 24       	eor	r1, r1
    1ac0:	08 95       	ret

00001ac2 <_exit>:
    1ac2:	f8 94       	cli

00001ac4 <__stop_program>:
    1ac4:	ff cf       	rjmp	.-2      	; 0x1ac4 <__stop_program>
